gpasm-1.4.0 #1106 (Oct  6 2014) obj\Release\e   7-19-2020  20:05:21         PAGE  1


LOC    OBJECT CODE    LINE  SOURCE TEXT
  VALUE

                      00001 ;--------------------------------------------------------
                      00002 ; File Created by SDCC : free open source ANSI-C Compiler
                      00003 ; Version 3.5.0 #9253 (Jun 20 2015) (MINGW32)
                      00004 ; This file was generated Sun Jul 19 20:05:21 2020
                      00005 ;--------------------------------------------------------
                      00006 ; PIC port for the 14-bit core
                      00007 ;--------------------------------------------------------
                      00008 ;       .file   "eeprom_ext.c"
                      00009         list    p=16f877a
                      00010         radix dec
                      00011         include "p16f877a.inc"
                      00001         LIST
                      00002 
                      00003 ;==========================================================================
                      00004 ; Build date : Aug 07 2014
                      00005 ;  MPASM PIC16F877A processor include
                      00006 ; 
                      00007 ;  (c) Copyright 1999-2014 Microchip Technology, All rights reserved
                      00008 ;==========================================================================
                      00009 
                      00567         LIST
                      00012 ;--------------------------------------------------------
                      00013 ; external declarations
                      00014 ;--------------------------------------------------------
  0000                00015         extern  _GPIO_InitPortPin
  0000                00016         extern  _GPIO_InitPort
  0000                00017         extern  _GPIO_Update
  0000                00018         extern  _GPIO_SetPortPinState
  0000                00019         extern  _GPIO_SetPortState
  0000                00020         extern  _GPIO_GetPortPinState
  0000                00021         extern  _PB_Init
  0000                00022         extern  _PB_Update
  0000                00023         extern  _PB_GetState
  0000                00024         extern  _ADC_Init
  0000                00025         extern  _ADC_Update
  0000                00026         extern  _ADC_GetResult
  0000                00027         extern  _Start_conversion_Int
  0000                00028         extern  _Temprature_Init
  0000                00029         extern  _Temprature_update
  0000                00030         extern  _LED_Init
  0000                00031         extern  _LED_GetState
  0000                00032         extern  _LED_Update
  0000                00033         extern  _Heater_Init
  0000                00034         extern  _Heater_update
  0000                00035         extern  _Heater_GetState
  0000                00036         extern  _Cooler_Init
  0000                00037         extern  _Cooler_SetState
  0000                00038         extern  _Cooler_GetState
  0000                00039         extern  _Cooler_update
  0000                00040         extern  _I2C_Init
  0000                00041         extern  _I2C_Hold
  0000                00042         extern  _I2C_Begin
  0000                00043         extern  _I2C_End
gpasm-1.4.0 #1106 (Oct  6 2014) obj\Release\e   7-19-2020  20:05:21         PAGE  2


LOC    OBJECT CODE    LINE  SOURCE TEXT
  VALUE

  0000                00044         extern  _I2C_Write
  0000                00045         extern  _I2C_Read
  0000                00046         extern  _TMR0_Init
  0000                00047         extern  _TMR0_Update
  0000                00048         extern  _TMR0_Start
  0000                00049         extern  _UTIL_DelayMS
  0000                00050         extern  _SSD_Init
  0000                00051         extern  _SSD_SET_Symbol
  0000                00052         extern  _SSD_SET_state
  0000                00053         extern  _SSD_GET_state
  0000                00054         extern  _SSD_GET_Symbol
  0000                00055         extern  _SSD_update
  0000                00056         extern  _SettingMode_update
  0000                00057         extern  _STATUSbits
  0000                00058         extern  _PORTAbits
  0000                00059         extern  _PORTBbits
  0000                00060         extern  _PORTCbits
  0000                00061         extern  _PORTDbits
  0000                00062         extern  _PORTEbits
  0000                00063         extern  _INTCONbits
  0000                00064         extern  _PIR1bits
  0000                00065         extern  _PIR2bits
  0000                00066         extern  _T1CONbits
  0000                00067         extern  _T2CONbits
  0000                00068         extern  _SSPCONbits
  0000                00069         extern  _CCP1CONbits
  0000                00070         extern  _RCSTAbits
  0000                00071         extern  _CCP2CONbits
  0000                00072         extern  _ADCON0bits
  0000                00073         extern  _OPTION_REGbits
  0000                00074         extern  _TRISAbits
  0000                00075         extern  _TRISBbits
  0000                00076         extern  _TRISCbits
  0000                00077         extern  _TRISDbits
  0000                00078         extern  _TRISEbits
  0000                00079         extern  _PIE1bits
  0000                00080         extern  _PIE2bits
  0000                00081         extern  _PCONbits
  0000                00082         extern  _SSPCON2bits
  0000                00083         extern  _SSPSTATbits
  0000                00084         extern  _TXSTAbits
  0000                00085         extern  _CMCONbits
  0000                00086         extern  _CVRCONbits
  0000                00087         extern  _ADCON1bits
  0000                00088         extern  _EECON1bits
  0000                00089         extern  _Counters
  0000                00090         extern  _Flags
  0000                00091         extern  _Readings
  0000                00092         extern  _INDF
  0000                00093         extern  _TMR0
  0000                00094         extern  _PCL
  0000                00095         extern  _STATUS
  0000                00096         extern  _FSR
gpasm-1.4.0 #1106 (Oct  6 2014) obj\Release\e   7-19-2020  20:05:21         PAGE  3


LOC    OBJECT CODE    LINE  SOURCE TEXT
  VALUE

  0000                00097         extern  _PORTA
  0000                00098         extern  _PORTB
  0000                00099         extern  _PORTC
  0000                00100         extern  _PORTD
  0000                00101         extern  _PORTE
  0000                00102         extern  _PCLATH
  0000                00103         extern  _INTCON
  0000                00104         extern  _PIR1
  0000                00105         extern  _PIR2
  0000                00106         extern  _TMR1
  0000                00107         extern  _TMR1L
  0000                00108         extern  _TMR1H
  0000                00109         extern  _T1CON
  0000                00110         extern  _TMR2
  0000                00111         extern  _T2CON
  0000                00112         extern  _SSPBUF
  0000                00113         extern  _SSPCON
  0000                00114         extern  _CCPR1
  0000                00115         extern  _CCPR1L
  0000                00116         extern  _CCPR1H
  0000                00117         extern  _CCP1CON
  0000                00118         extern  _RCSTA
  0000                00119         extern  _TXREG
  0000                00120         extern  _RCREG
  0000                00121         extern  _CCPR2
  0000                00122         extern  _CCPR2L
  0000                00123         extern  _CCPR2H
  0000                00124         extern  _CCP2CON
  0000                00125         extern  _ADRESH
  0000                00126         extern  _ADCON0
  0000                00127         extern  _OPTION_REG
  0000                00128         extern  _TRISA
  0000                00129         extern  _TRISB
  0000                00130         extern  _TRISC
  0000                00131         extern  _TRISD
  0000                00132         extern  _TRISE
  0000                00133         extern  _PIE1
  0000                00134         extern  _PIE2
  0000                00135         extern  _PCON
  0000                00136         extern  _SSPCON2
  0000                00137         extern  _PR2
  0000                00138         extern  _SSPADD
  0000                00139         extern  _SSPSTAT
  0000                00140         extern  _TXSTA
  0000                00141         extern  _SPBRG
  0000                00142         extern  _CMCON
  0000                00143         extern  _CVRCON
  0000                00144         extern  _ADRESL
  0000                00145         extern  _ADCON1
  0000                00146         extern  _EEDATA
  0000                00147         extern  _EEADR
  0000                00148         extern  _EEDATH
  0000                00149         extern  _EEADRH
gpasm-1.4.0 #1106 (Oct  6 2014) obj\Release\e   7-19-2020  20:05:21         PAGE  4


LOC    OBJECT CODE    LINE  SOURCE TEXT
  VALUE

  0000                00150         extern  _EECON1
  0000                00151         extern  _EECON2
                      00152 
  0000                00153         extern PSAVE
  0000                00154         extern SSAVE
  0000                00155         extern WSAVE
  0000                00156         extern STK12
  0000                00157         extern STK11
  0000                00158         extern STK10
  0000                00159         extern STK09
  0000                00160         extern STK08
  0000                00161         extern STK07
  0000                00162         extern STK06
  0000                00163         extern STK05
  0000                00164         extern STK04
  0000                00165         extern STK03
  0000                00166         extern STK02
  0000                00167         extern STK01
  0000                00168         extern STK00
                      00169 ;--------------------------------------------------------
                      00170 ; global declarations
                      00171 ;--------------------------------------------------------
  0000                00172         global  _e2pex_update
  0000                00173         global  _e2pext_w
  0000                00174         global  _e2pext_r
                      00175 
                      00176 ;--------------------------------------------------------
                      00177 ; global definitions
                      00178 ;--------------------------------------------------------
                      00179 ;--------------------------------------------------------
                      00180 ; absolute symbol definitions
                      00181 ;--------------------------------------------------------
                      00182 ;--------------------------------------------------------
                      00183 ; compiler-defined variables
                      00184 ;--------------------------------------------------------
                      00185 UDL_eeprom_ext_0        udata
0000                  00186 r0x1019 res     1
0001                  00187 r0x1018 res     1
0002                  00188 r0x101A res     1
0003                  00189 r0x101B res     1
0004                  00190 r0x101F res     1
0005                  00191 r0x101E res     1
0006                  00192 r0x1020 res     1
0007                  00193 r0x1021 res     1
0008                  00194 r0x1022 res     1
0009                  00195 r0x1023 res     1
000A                  00196 r0x1024 res     1
000B                  00197 r0x1025 res     1
000C                  00198 r0x1026 res     1
000D                  00199 r0x1027 res     1
000E                  00200 r0x1028 res     1
000F                  00201 r0x1029 res     1
0010                  00202 r0x102A res     1
gpasm-1.4.0 #1106 (Oct  6 2014) obj\Release\e   7-19-2020  20:05:21         PAGE  5


LOC    OBJECT CODE    LINE  SOURCE TEXT
  VALUE

0011                  00203 r0x102B res     1
0012                  00204 r0x102C res     1
                      00205 ;--------------------------------------------------------
                      00206 ; initialized data
                      00207 ;--------------------------------------------------------
                      00208 ;--------------------------------------------------------
                      00209 ; overlayable items in internal ram 
                      00210 ;--------------------------------------------------------
                      00211 ;       udata_ovr
                      00212 ;--------------------------------------------------------
                      00213 ; code
                      00214 ;--------------------------------------------------------
                      00215 code_eeprom_ext code
                      00216 ;***
                      00217 ;  pBlock Stats: dbName = C
                      00218 ;***
                      00219 ;entry:  _e2pex_update  ;Function start
                      00220 ; 2 exit points
                      00221 ;has an exit
                      00222 ;functions called:
                      00223 ;   _e2pext_r
                      00224 ;   _e2pext_w
                      00225 ;   _e2pext_w
                      00226 ;   _e2pext_w
                      00227 ;   _e2pext_r
                      00228 ;   _e2pext_r
                      00229 ;   _e2pext_w
                      00230 ;   _e2pext_w
                      00231 ;   _e2pext_w
                      00232 ;   _e2pext_r
                      00233 ;7 compiler assigned registers:
                      00234 ;   r0x1028
                      00235 ;   STK00
                      00236 ;   STK01
                      00237 ;   r0x1029
                      00238 ;   r0x102A
                      00239 ;   r0x102B
                      00240 ;   r0x102C
                      00241 ;; Starting pCode block
0000                  00242 _e2pex_update   ;Function start
                      00243 ; 2 exit points
                      00244 ;       .line   75; "eeprom_ext.c"      if(Flags.e2prom_flag == 0)//check this condition once at runtime
                            .This condition is for limiting the execution time of this fn.
0000   ???? ????      00245         BANKSEL _Flags
0002   08??           00246         MOVF    (_Flags + 5),W
0003   ???? ????      00247         BANKSEL r0x1028
0005   00??           00248         MOVWF   r0x1028
0006   1D03           00249         BTFSS   STATUS,2
0007   2???           00250         GOTO    _00147_DS_
                      00251 ;       .line   77; "eeprom_ext.c"      if(e2pext_r(43) == 0xFF)//For the first use,check address 41 if 
                            initialized with 0XFF ,write 60 in set_value storing location.
0008   302B           00252         MOVLW   0x2b
0009   00??           00253         MOVWF   STK00
gpasm-1.4.0 #1106 (Oct  6 2014) obj\Release\e   7-19-2020  20:05:21         PAGE  6


LOC    OBJECT CODE    LINE  SOURCE TEXT
  VALUE

000A   3000           00254         MOVLW   0x00
000B   2???           00255         CALL    _e2pext_r
000C   ???? ????      00256         BANKSEL r0x1028
000E   00??           00257         MOVWF   r0x1028
000F   3AFF           00258         XORLW   0xff
0010   1D03           00259         BTFSS   STATUS,2
0011   2???           00260         GOTO    _00140_DS_
                      00261 ;       .line   79; "eeprom_ext.c"      e2pext_w(20,60);
0012   303C           00262         MOVLW   0x3c
0013   00??           00263         MOVWF   STK01
0014   3014           00264         MOVLW   0x14
0015   00??           00265         MOVWF   STK00
0016   3000           00266         MOVLW   0x00
0017   2???           00267         CALL    _e2pext_w
                      00268 ;       .line   80; "eeprom_ext.c"      e2pext_w(43,0);
0018   3000           00269         MOVLW   0x00
0019   00??           00270         MOVWF   STK01
001A   302B           00271         MOVLW   0x2b
001B   00??           00272         MOVWF   STK00
001C   3000           00273         MOVLW   0x00
001D   2???           00274         CALL    _e2pext_w
                      00275 ;;/home/sdcc-builder/build/sdcc-build/orig/sdcc/src/pic14/gen.c:6461: size=0, offset=0, AOP_TYPE(res)=8
001E                  00276 _00140_DS_
                      00277 ;       .line   82; "eeprom_ext.c"      Flags.e2prom_flag = 1 ;
001E   3001           00278         MOVLW   0x01
001F   ???? ????      00279         BANKSEL _Flags
0021   00??           00280         MOVWF   (_Flags + 5)
0022   2???           00281         GOTO    _00149_DS_
0023                  00282 _00147_DS_
                      00283 ;       .line   86; "eeprom_ext.c"      if (Counters.e2prom_count >= 250 && Counters.FixedMode_counter =
                            = 250)//check if the system get into the fixed mode
0023   ???? ????      00284         BANKSEL _Counters
0025   08??           00285         MOVF    (_Counters + 6),W
0026   ???? ????      00286         BANKSEL r0x1028
0028   00??           00287         MOVWF   r0x1028
0029   ???? ????      00288         BANKSEL _Counters
002B   08??           00289         MOVF    (_Counters + 7),W
002C   ???? ????      00290         BANKSEL r0x1029
002E   00??           00291         MOVWF   r0x1029
002F   ???? ????      00292         BANKSEL _Counters
0031   08??           00293         MOVF    (_Counters + 8),W
0032   ???? ????      00294         BANKSEL r0x102A
0034   00??           00295         MOVWF   r0x102A
0035   ???? ????      00296         BANKSEL _Counters
0037   08??           00297         MOVF    (_Counters + 9),W
0038   ???? ????      00298         BANKSEL r0x102B
003A   00??           00299         MOVWF   r0x102B
                      00300 ;;unsigned compare: left < lit(0xFA=250), size=4
003B   3000           00301         MOVLW   0x00
003C   02??           00302         SUBWF   r0x102B,W
003D   1D03           00303         BTFSS   STATUS,2
003E   2???           00304         GOTO    _00166_DS_
003F   3000           00305         MOVLW   0x00
gpasm-1.4.0 #1106 (Oct  6 2014) obj\Release\e   7-19-2020  20:05:21         PAGE  7


LOC    OBJECT CODE    LINE  SOURCE TEXT
  VALUE

0040   02??           00306         SUBWF   r0x102A,W
0041   1D03           00307         BTFSS   STATUS,2
0042   2???           00308         GOTO    _00166_DS_
0043   3000           00309         MOVLW   0x00
0044   02??           00310         SUBWF   r0x1029,W
0045   1D03           00311         BTFSS   STATUS,2
0046   2???           00312         GOTO    _00166_DS_
0047   30FA           00313         MOVLW   0xfa
0048   02??           00314         SUBWF   r0x1028,W
0049                  00315 _00166_DS_
0049   1C03           00316         BTFSS   STATUS,0
004A   2???           00317         GOTO    _00142_DS_
                      00318 ;;genSkipc:3247: created from rifx:027A5DF4
004B   ???? ????      00319         BANKSEL _Counters
004D   08??           00320         MOVF    (_Counters + 0),W
004E   ???? ????      00321         BANKSEL r0x1028
0050   00??           00322         MOVWF   r0x1028
0051   ???? ????      00323         BANKSEL _Counters
0053   08??           00324         MOVF    (_Counters + 1),W
0054   ???? ????      00325         BANKSEL r0x1029
0056   00??           00326         MOVWF   r0x1029
0057   08??           00327         MOVF    r0x1028,W
0058   3AFA           00328         XORLW   0xfa
0059   1D03           00329         BTFSS   STATUS,2
005A   2???           00330         GOTO    _00142_DS_
005B   08??           00331         MOVF    r0x1029,W
005C   3A00           00332         XORLW   0x00
005D   1D03           00333         BTFSS   STATUS,2
005E   2???           00334         GOTO    _00142_DS_
                      00335 ;       .line   88; "eeprom_ext.c"      e2pext_w(20,Readings.Set_value);
005F   ???? ????      00336         BANKSEL _Readings
0061   08??           00337         MOVF    (_Readings + 4),W
0062   ???? ????      00338         BANKSEL r0x1028
0064   00??           00339         MOVWF   r0x1028
0065   ???? ????      00340         BANKSEL _Readings
0067   08??           00341         MOVF    (_Readings + 5),W
0068   ???? ????      00342         BANKSEL r0x1029
006A   00??           00343         MOVWF   r0x1029
006B   ???? ????      00344         BANKSEL _Readings
006D   08??           00345         MOVF    (_Readings + 6),W
006E   ???? ????      00346         BANKSEL r0x102A
0070   00??           00347         MOVWF   r0x102A
0071   ???? ????      00348         BANKSEL _Readings
0073   08??           00349         MOVF    (_Readings + 7),W
0074   ???? ????      00350         BANKSEL r0x102B
0076   00??           00351         MOVWF   r0x102B
0077   08??           00352         MOVF    r0x1028,W
0078   00??           00353         MOVWF   r0x102C
0079   00??           00354         MOVWF   STK01
007A   3014           00355         MOVLW   0x14
007B   00??           00356         MOVWF   STK00
007C   3000           00357         MOVLW   0x00
007D   2???           00358         CALL    _e2pext_w
gpasm-1.4.0 #1106 (Oct  6 2014) obj\Release\e   7-19-2020  20:05:21         PAGE  8


LOC    OBJECT CODE    LINE  SOURCE TEXT
  VALUE

                      00359 ;;/home/sdcc-builder/build/sdcc-build/orig/sdcc/src/pic14/gen.c:6461: size=3, offset=0, AOP_TYPE(res)=8
                      00360 ;       .line   89; "eeprom_ext.c"      Counters.e2prom_count = 0;
007E   ???? ????      00361         BANKSEL _Counters
0080   01??           00362         CLRF    (_Counters + 6)
                      00363 ;;/home/sdcc-builder/build/sdcc-build/orig/sdcc/src/pic14/gen.c:6461: size=2, offset=1, AOP_TYPE(res)=8
0081   01??           00364         CLRF    (_Counters + 7)
                      00365 ;;/home/sdcc-builder/build/sdcc-build/orig/sdcc/src/pic14/gen.c:6461: size=1, offset=2, AOP_TYPE(res)=8
0082   01??           00366         CLRF    (_Counters + 8)
                      00367 ;;/home/sdcc-builder/build/sdcc-build/orig/sdcc/src/pic14/gen.c:6461: size=0, offset=3, AOP_TYPE(res)=8
0083   01??           00368         CLRF    (_Counters + 9)
0084                  00369 _00142_DS_
                      00370 ;       .line   91; "eeprom_ext.c"      if(Flags.Operation_Flag == 0) //check if the system get into the
                             OFF mode and assign the last set value to the current set value
0084   ???? ????      00371         BANKSEL _Flags
0086   08??           00372         MOVF    (_Flags + 4),W
0087   ???? ????      00373         BANKSEL r0x1028
0089   00??           00374         MOVWF   r0x1028
008A   08??           00375         MOVF    r0x1028,W
008B   1D03           00376         BTFSS   STATUS,2
008C   2???           00377         GOTO    _00149_DS_
                      00378 ;       .line   93; "eeprom_ext.c"      Readings.Set_value = e2pext_r(20);
008D   3014           00379         MOVLW   0x14
008E   00??           00380         MOVWF   STK00
008F   3000           00381         MOVLW   0x00
0090   2???           00382         CALL    _e2pext_r
0091   ???? ????      00383         BANKSEL r0x1028
0093   00??           00384         MOVWF   r0x1028
0094   ???? ????      00385         BANKSEL _Readings
0096   00??           00386         MOVWF   (_Readings + 4)
0097   ???? ????      00387         BANKSEL r0x1029
0099   00??           00388         MOVWF   r0x1029
009A   01??           00389         CLRF    r0x102A
009B   01??           00390         CLRF    r0x102B
009C   01??           00391         CLRF    r0x102C
                      00392 ;;/home/sdcc-builder/build/sdcc-build/orig/sdcc/src/pic14/gen.c:6461: size=3, offset=0, AOP_TYPE(res)=8
                      00393 ;;106   MOVF    r0x1029,W
                      00394 ;;/home/sdcc-builder/build/sdcc-build/orig/sdcc/src/pic14/gen.c:6461: size=2, offset=1, AOP_TYPE(res)=8
009D   3000           00395         MOVLW   0x00
009E   ???? ????      00396         BANKSEL _Readings
00A0   00??           00397         MOVWF   (_Readings + 5)
00A1   00??           00398         MOVWF   (_Readings + 6)
                      00399 ;;/home/sdcc-builder/build/sdcc-build/orig/sdcc/src/pic14/gen.c:6461: size=0, offset=3, AOP_TYPE(res)=8
00A2   3000           00400         MOVLW   0x00
00A3   00??           00401         MOVWF   (_Readings + 7)
00A4                  00402 _00149_DS_
00A4   0008           00403         RETURN  
                      00404 ; exit point of _e2pex_update
                      00405 
                      00406 ;***
                      00407 ;  pBlock Stats: dbName = C
                      00408 ;***
                      00409 ;entry:  _e2pext_w      ;Function start
                      00410 ; 2 exit points
gpasm-1.4.0 #1106 (Oct  6 2014) obj\Release\e   7-19-2020  20:05:21         PAGE  9


LOC    OBJECT CODE    LINE  SOURCE TEXT
  VALUE

                      00411 ;has an exit
                      00412 ;functions called:
                      00413 ;   _I2C_Begin
                      00414 ;   _I2C_Write
                      00415 ;   _I2C_Write
                      00416 ;   _I2C_Write
                      00417 ;   _I2C_Write
                      00418 ;   _I2C_End
                      00419 ;   _e2pext_r
                      00420 ;   _I2C_Begin
                      00421 ;   _I2C_Write
                      00422 ;   _I2C_Write
                      00423 ;   _I2C_Write
                      00424 ;   _I2C_Write
                      00425 ;   _I2C_End
                      00426 ;   _e2pext_r
                      00427 ;12 compiler assigned registers:
                      00428 ;   r0x101E
                      00429 ;   STK00
                      00430 ;   r0x101F
                      00431 ;   STK01
                      00432 ;   r0x1020
                      00433 ;   r0x1021
                      00434 ;   r0x1022
                      00435 ;   r0x1023
                      00436 ;   r0x1024
                      00437 ;   r0x1025
                      00438 ;   r0x1026
                      00439 ;   r0x1027
                      00440 ;; Starting pCode block
00A5                  00441 _e2pext_w       ;Function start
                      00442 ; 2 exit points
                      00443 ;       .line   39; "eeprom_ext.c"      void e2pext_w(unsigned int addr, unsigned char val)
00A5   ???? ????      00444         BANKSEL r0x101E
00A7   00??           00445         MOVWF   r0x101E
00A8   08??           00446         MOVF    STK00,W
00A9   00??           00447         MOVWF   r0x101F
00AA   08??           00448         MOVF    STK01,W
                      00449 ;       .line   46; "eeprom_ext.c"      tmp=val;
00AB   00??           00450         MOVWF   r0x1020
00AC   00??           00451         MOVWF   r0x1021
00AD   01??           00452         CLRF    r0x1022
                      00453 ;       .line   47; "eeprom_ext.c"      ah=(addr&0x0100)>>8;
00AE   01??           00454         CLRF    r0x1020
00AF   3001           00455         MOVLW   0x01
00B0   05??           00456         ANDWF   r0x101E,W
00B1   00??           00457         MOVWF   r0x1023
00B2   00??           00458         MOVWF   r0x1020
00B3   00??           00459         MOVWF   r0x1024
00B4   01??           00460         CLRF    r0x1025
                      00461 ;;107   MOVF    r0x1024,W
                      00462 ;;103   MOVF    r0x101F,W
                      00463 ;       .line   48; "eeprom_ext.c"      al=addr&0x00FF;
gpasm-1.4.0 #1106 (Oct  6 2014) obj\Release\e   7-19-2020  20:05:21         PAGE 10


LOC    OBJECT CODE    LINE  SOURCE TEXT
  VALUE

00B5   01??           00464         CLRF    r0x1025
                      00465 ;;102   MOVF    r0x1024,W
00B6   08??           00466         MOVF    r0x101F,W
00B7   00??           00467         MOVWF   r0x1024
00B8   00??           00468         MOVWF   r0x1023
                      00469 ;       .line   51; "eeprom_ext.c"      do
00B9   01??           00470         CLRF    r0x1024
00BA                  00471 _00119_DS_
                      00472 ;       .line   53; "eeprom_ext.c"      I2C_Begin();
00BA   ???? ????      00473         PAGESEL _I2C_Begin
00BC   2???           00474         CALL    _I2C_Begin
00BD   ???? ????      00475         PAGESEL $
                      00476 ;       .line   54; "eeprom_ext.c"      if(ah)
00BF   ???? ????      00477         BANKSEL r0x1020
00C1   08??           00478         MOVF    r0x1020,W
00C2   1903           00479         BTFSC   STATUS,2
00C3   2???           00480         GOTO    _00116_DS_
                      00481 ;       .line   56; "eeprom_ext.c"      I2C_Write(0xA2);
00C4   30A2           00482         MOVLW   0xa2
00C5   00??           00483         MOVWF   STK00
00C6   3000           00484         MOVLW   0x00
00C7   ???? ????      00485         PAGESEL _I2C_Write
00C9   2???           00486         CALL    _I2C_Write
00CA   ???? ????      00487         PAGESEL $
00CC   2???           00488         GOTO    _00117_DS_
00CD                  00489 _00116_DS_
                      00490 ;       .line   60; "eeprom_ext.c"      I2C_Write(0xA0);
00CD   30A0           00491         MOVLW   0xa0
00CE   00??           00492         MOVWF   STK00
00CF   3000           00493         MOVLW   0x00
00D0   ???? ????      00494         PAGESEL _I2C_Write
00D2   2???           00495         CALL    _I2C_Write
00D3   ???? ????      00496         PAGESEL $
                      00497 ;;105   MOVF    r0x1023,W
00D5                  00498 _00117_DS_
                      00499 ;       .line   62; "eeprom_ext.c"      I2C_Write(al);
00D5   ???? ????      00500         BANKSEL r0x1026
00D7   01??           00501         CLRF    r0x1026
                      00502 ;;104   MOVF    r0x1025,W
00D8   08??           00503         MOVF    r0x1023,W
00D9   00??           00504         MOVWF   r0x1025
00DA   00??           00505         MOVWF   STK00
00DB   3000           00506         MOVLW   0x00
00DC   ???? ????      00507         PAGESEL _I2C_Write
00DE   2???           00508         CALL    _I2C_Write
00DF   ???? ????      00509         PAGESEL $
                      00510 ;       .line   63; "eeprom_ext.c"      I2C_Write(tmp);
00E1   ???? ????      00511         BANKSEL r0x1021
00E3   08??           00512         MOVF    r0x1021,W
00E4   00??           00513         MOVWF   STK00
00E5   08??           00514         MOVF    r0x1022,W
00E6   ???? ????      00515         PAGESEL _I2C_Write
00E8   2???           00516         CALL    _I2C_Write
gpasm-1.4.0 #1106 (Oct  6 2014) obj\Release\e   7-19-2020  20:05:21         PAGE 11


LOC    OBJECT CODE    LINE  SOURCE TEXT
  VALUE

00E9   ???? ????      00517         PAGESEL $
                      00518 ;       .line   64; "eeprom_ext.c"      I2C_End();
00EB   ???? ????      00519         PAGESEL _I2C_End
00ED   2???           00520         CALL    _I2C_End
00EE   ???? ????      00521         PAGESEL $
                      00522 ;       .line   66; "eeprom_ext.c"      nt++;
00F0   ???? ????      00523         BANKSEL r0x1024
00F2   0A??           00524         INCF    r0x1024,F
                      00525 ;       .line   68; "eeprom_ext.c"      while((tmp != e2pext_r(addr))&&(nt < 10));
00F3   08??           00526         MOVF    r0x101F,W
00F4   00??           00527         MOVWF   STK00
00F5   08??           00528         MOVF    r0x101E,W
00F6   2???           00529         CALL    _e2pext_r
00F7   ???? ????      00530         BANKSEL r0x1025
00F9   00??           00531         MOVWF   r0x1025
00FA   00??           00532         MOVWF   r0x1026
00FB   01??           00533         CLRF    r0x1027
00FC   08??           00534         MOVF    r0x1026,W
00FD   06??           00535         XORWF   r0x1021,W
00FE   1D03           00536         BTFSS   STATUS,2
00FF   2???           00537         GOTO    _00134_DS_
0100   08??           00538         MOVF    r0x1027,W
0101   06??           00539         XORWF   r0x1022,W
0102   1903           00540         BTFSC   STATUS,2
0103   2???           00541         GOTO    _00122_DS_
0104                  00542 _00134_DS_
0104   300A           00543         MOVLW   0x0a
0105   ???? ????      00544         BANKSEL r0x1024
0107   02??           00545         SUBWF   r0x1024,W
0108   1C03           00546         BTFSS   STATUS,0
0109   2???           00547         GOTO    _00119_DS_
                      00548 ;;genSkipc:3247: created from rifx:027A5DF4
010A                  00549 _00122_DS_
010A   0008           00550         RETURN  
                      00551 ; exit point of _e2pext_w
                      00552 
                      00553 ;***
                      00554 ;  pBlock Stats: dbName = C
                      00555 ;***
                      00556 ;entry:  _e2pext_r      ;Function start
                      00557 ; 2 exit points
                      00558 ;has an exit
                      00559 ;functions called:
                      00560 ;   _I2C_Begin
                      00561 ;   _I2C_Write
                      00562 ;   _I2C_Write
                      00563 ;   _I2C_Write
                      00564 ;   _I2C_Begin
                      00565 ;   _I2C_Write
                      00566 ;   _I2C_Write
                      00567 ;   _I2C_Read
                      00568 ;   _I2C_End
                      00569 ;   _I2C_Begin
gpasm-1.4.0 #1106 (Oct  6 2014) obj\Release\e   7-19-2020  20:05:21         PAGE 12


LOC    OBJECT CODE    LINE  SOURCE TEXT
  VALUE

                      00570 ;   _I2C_Write
                      00571 ;   _I2C_Write
                      00572 ;   _I2C_Write
                      00573 ;   _I2C_Begin
                      00574 ;   _I2C_Write
                      00575 ;   _I2C_Write
                      00576 ;   _I2C_Read
                      00577 ;   _I2C_End
                      00578 ;7 compiler assigned registers:
                      00579 ;   r0x1018
                      00580 ;   STK00
                      00581 ;   r0x1019
                      00582 ;   r0x101A
                      00583 ;   r0x101B
                      00584 ;   r0x101C
                      00585 ;   r0x101D
                      00586 ;; Starting pCode block
010B                  00587 _e2pext_r       ;Function start
                      00588 ; 2 exit points
                      00589 ;       .line   3; "eeprom_ext.c"       unsigned char e2pext_r(unsigned int addr)
010B   ???? ????      00590         BANKSEL r0x1018
010D   00??           00591         MOVWF   r0x1018
010E   08??           00592         MOVF    STK00,W
010F   00??           00593         MOVWF   r0x1019
                      00594 ;       .line   9; "eeprom_ext.c"       ah=(addr&0x0100)>>8;
0110   01??           00595         CLRF    r0x101A
0111   3001           00596         MOVLW   0x01
0112   05??           00597         ANDWF   r0x1018,W
0113   00??           00598         MOVWF   r0x101B
0114   00??           00599         MOVWF   r0x101A
                      00600 ;;1     MOVWF   r0x101C
                      00601 ;;1     CLRF    r0x101D
                      00602 ;;99    MOVF    r0x101C,W
                      00603 ;       .line   10; "eeprom_ext.c"      al=addr&0x00FF;
0115   01??           00604         CLRF    r0x1018
0116   08??           00605         MOVF    r0x1019,W
0117   00??           00606         MOVWF   r0x101B
                      00607 ;       .line   12; "eeprom_ext.c"      I2C_Begin();
0118   ???? ????      00608         PAGESEL _I2C_Begin
011A   2???           00609         CALL    _I2C_Begin
011B   ???? ????      00610         PAGESEL $
                      00611 ;       .line   13; "eeprom_ext.c"      if(ah)
011D   ???? ????      00612         BANKSEL r0x101A
011F   08??           00613         MOVF    r0x101A,W
0120   1903           00614         BTFSC   STATUS,2
0121   2???           00615         GOTO    _00106_DS_
                      00616 ;       .line   15; "eeprom_ext.c"      I2C_Write(0xA2);
0122   30A2           00617         MOVLW   0xa2
0123   00??           00618         MOVWF   STK00
0124   3000           00619         MOVLW   0x00
0125   ???? ????      00620         PAGESEL _I2C_Write
0127   2???           00621         CALL    _I2C_Write
0128   ???? ????      00622         PAGESEL $
gpasm-1.4.0 #1106 (Oct  6 2014) obj\Release\e   7-19-2020  20:05:21         PAGE 13


LOC    OBJECT CODE    LINE  SOURCE TEXT
  VALUE

012A   2???           00623         GOTO    _00107_DS_
012B                  00624 _00106_DS_
                      00625 ;       .line   19; "eeprom_ext.c"      I2C_Write(0xA0);
012B   30A0           00626         MOVLW   0xa0
012C   00??           00627         MOVWF   STK00
012D   3000           00628         MOVLW   0x00
012E   ???? ????      00629         PAGESEL _I2C_Write
0130   2???           00630         CALL    _I2C_Write
0131   ???? ????      00631         PAGESEL $
                      00632 ;;101   MOVF    r0x101B,W
0133                  00633 _00107_DS_
                      00634 ;       .line   21; "eeprom_ext.c"      I2C_Write(al);
0133   ???? ????      00635         BANKSEL r0x1018
0135   01??           00636         CLRF    r0x1018
                      00637 ;;100   MOVF    r0x1019,W
0136   08??           00638         MOVF    r0x101B,W
0137   00??           00639         MOVWF   r0x1019
0138   00??           00640         MOVWF   STK00
0139   3000           00641         MOVLW   0x00
013A   ???? ????      00642         PAGESEL _I2C_Write
013C   2???           00643         CALL    _I2C_Write
013D   ???? ????      00644         PAGESEL $
                      00645 ;       .line   23; "eeprom_ext.c"      I2C_Begin();
013F   ???? ????      00646         PAGESEL _I2C_Begin
0141   2???           00647         CALL    _I2C_Begin
0142   ???? ????      00648         PAGESEL $
                      00649 ;       .line   24; "eeprom_ext.c"      if(ah)
0144   ???? ????      00650         BANKSEL r0x101A
0146   08??           00651         MOVF    r0x101A,W
0147   1903           00652         BTFSC   STATUS,2
0148   2???           00653         GOTO    _00109_DS_
                      00654 ;       .line   26; "eeprom_ext.c"      I2C_Write(0xA3);
0149   30A3           00655         MOVLW   0xa3
014A   00??           00656         MOVWF   STK00
014B   3000           00657         MOVLW   0x00
014C   ???? ????      00658         PAGESEL _I2C_Write
014E   2???           00659         CALL    _I2C_Write
014F   ???? ????      00660         PAGESEL $
0151   2???           00661         GOTO    _00110_DS_
0152                  00662 _00109_DS_
                      00663 ;       .line   30; "eeprom_ext.c"      I2C_Write(0xA1);
0152   30A1           00664         MOVLW   0xa1
0153   00??           00665         MOVWF   STK00
0154   3000           00666         MOVLW   0x00
0155   ???? ????      00667         PAGESEL _I2C_Write
0157   2???           00668         CALL    _I2C_Write
0158   ???? ????      00669         PAGESEL $
015A                  00670 _00110_DS_
                      00671 ;       .line   32; "eeprom_ext.c"      ret=I2C_Read(1);
015A   3001           00672         MOVLW   0x01
015B   00??           00673         MOVWF   STK00
015C   3000           00674         MOVLW   0x00
015D   ???? ????      00675         PAGESEL _I2C_Read
gpasm-1.4.0 #1106 (Oct  6 2014) obj\Release\e   7-19-2020  20:05:21         PAGE 14


LOC    OBJECT CODE    LINE  SOURCE TEXT
  VALUE

015F   2???           00676         CALL    _I2C_Read
0160   ???? ????      00677         PAGESEL $
0162   ???? ????      00678         BANKSEL r0x1018
0164   00??           00679         MOVWF   r0x1018
0165   08??           00680         MOVF    STK00,W
0166   00??           00681         MOVWF   r0x1019
0167   00??           00682         MOVWF   r0x101A
                      00683 ;       .line   33; "eeprom_ext.c"      I2C_End();
0168   ???? ????      00684         PAGESEL _I2C_End
016A   2???           00685         CALL    _I2C_End
016B   ???? ????      00686         PAGESEL $
                      00687 ;       .line   35; "eeprom_ext.c"      return ret;
016D   ???? ????      00688         BANKSEL r0x101A
016F   08??           00689         MOVF    r0x101A,W
0170   0008           00690         RETURN  
                      00691 ; exit point of _e2pext_r
                      00692 
                      00693 
                      00694 ;       code size estimation:
                      00695 ;         221+   74 =   295 instructions (  738 byte)
                      00696 
                      00697         end
gpasm-1.4.0 #1106 (Oct  6 2014) obj\Release\e   7-19-2020  20:05:21         PAGE 15


SYMBOL TABLE
  LABEL                             VALUE

ACKDT                             00000005
ACKEN                             00000004
ACKSTAT                           00000006
ADCON0                            0000001F
ADCON1                            0000009F
ADCS0                             00000006
ADCS1                             00000007
ADCS2                             00000006
ADDEN                             00000003
ADFM                              00000007
ADIE                              00000006
ADIF                              00000006
ADON                              00000000
ADRESH                            0000001E
ADRESL                            0000009E
BCLIE                             00000003
BCLIF                             00000003
BF                                00000000
BRGH                              00000002
C                                 00000000
C1INV                             00000004
C1OUT                             00000006
C2INV                             00000005
C2OUT                             00000007
CCP1CON                           00000017
CCP1IE                            00000002
CCP1IF                            00000002
CCP1M0                            00000000
CCP1M1                            00000001
CCP1M2                            00000002
CCP1M3                            00000003
CCP1X                             00000005
CCP1Y                             00000004
CCP2CON                           0000001D
CCP2IE                            00000000
CCP2IF                            00000000
CCP2M0                            00000000
CCP2M1                            00000001
CCP2M2                            00000002
CCP2M3                            00000003
CCP2X                             00000005
CCP2Y                             00000004
CCPR1                             00000015
CCPR1H                            00000016
CCPR1L                            00000015
CCPR2                             0000001B
CCPR2H                            0000001C
CCPR2L                            0000001B
CHS0                              00000003
CHS1                              00000004
CHS2                              00000005
CIS                               00000003
CKE                               00000006
gpasm-1.4.0 #1106 (Oct  6 2014) obj\Release\e   7-19-2020  20:05:21         PAGE 16


SYMBOL TABLE
  LABEL                             VALUE 

CKP                               00000004
CM0                               00000000
CM1                               00000001
CM2                               00000002
CMCON                             0000009C
CMIE                              00000006
CMIF                              00000006
CREN                              00000004
CSRC                              00000007
CVR0                              00000000
CVR1                              00000001
CVR2                              00000002
CVR3                              00000003
CVRCON                            0000009D
CVREN                             00000007
CVROE                             00000006
CVRR                              00000005
D                                 00000005
DATA_ADDRESS                      00000005
DC                                00000001
D_A                               00000005
D_NOT_A                           00000005
EEADR                             0000010D
EEADRH                            0000010F
EECON1                            0000018C
EECON2                            0000018D
EEDATA                            0000010C
EEDATH                            0000010E
EEIE                              00000004
EEIF                              00000004
EEPGD                             00000007
F                                 00000001
FERR                              00000002
FSR                               00000004
GCEN                              00000007
GIE                               00000007
GO                                00000002
GO_DONE                           00000002
GO_NOT_DONE                       00000002
I2C_DATA                          00000005
I2C_READ                          00000002
I2C_START                         00000003
I2C_STOP                          00000004
IBF                               00000007
IBOV                              00000005
INDF                              00000000
INTCON                            0000000B
INTE                              00000004
INTEDG                            00000006
INTF                              00000001
IRP                               00000007
NOT_A                             00000005
NOT_ADDRESS                       00000005
gpasm-1.4.0 #1106 (Oct  6 2014) obj\Release\e   7-19-2020  20:05:21         PAGE 17


SYMBOL TABLE
  LABEL                             VALUE 

NOT_BO                            00000000
NOT_BOR                           00000000
NOT_DONE                          00000002
NOT_PD                            00000003
NOT_POR                           00000001
NOT_RBPU                          00000007
NOT_RC8                           00000006
NOT_T1SYNC                        00000002
NOT_TO                            00000004
NOT_TX8                           00000006
NOT_W                             00000002
NOT_WRITE                         00000002
OBF                               00000006
OERR                              00000001
OPTION_REG                        00000081
P                                 00000004
PCFG0                             00000000
PCFG1                             00000001
PCFG2                             00000002
PCFG3                             00000003
PCL                               00000002
PCLATH                            0000000A
PCON                              0000008E
PEIE                              00000006
PEN                               00000002
PIE1                              0000008C
PIE2                              0000008D
PIR1                              0000000C
PIR2                              0000000D
PORTA                             00000005
PORTB                             00000006
PORTC                             00000007
PORTD                             00000008
PORTE                             00000009
PR2                               00000092
PS0                               00000000
PS1                               00000001
PS2                               00000002
PSA                               00000003
PSAVE                             00000000
PSPIE                             00000007
PSPIF                             00000007
PSPMODE                           00000004
R                                 00000002
RA0                               00000000
RA1                               00000001
RA2                               00000002
RA3                               00000003
RA4                               00000004
RA5                               00000005
RB0                               00000000
RB1                               00000001
RB2                               00000002
gpasm-1.4.0 #1106 (Oct  6 2014) obj\Release\e   7-19-2020  20:05:21         PAGE 18


SYMBOL TABLE
  LABEL                             VALUE 

RB3                               00000003
RB4                               00000004
RB5                               00000005
RB6                               00000006
RB7                               00000007
RBIE                              00000003
RBIF                              00000000
RC0                               00000000
RC1                               00000001
RC2                               00000002
RC3                               00000003
RC4                               00000004
RC5                               00000005
RC6                               00000006
RC7                               00000007
RC8_9                             00000006
RC9                               00000006
RCD8                              00000000
RCEN                              00000003
RCIE                              00000005
RCIF                              00000005
RCREG                             0000001A
RCSTA                             00000018
RD                                00000000
RD0                               00000000
RD1                               00000001
RD2                               00000002
RD3                               00000003
RD4                               00000004
RD5                               00000005
RD6                               00000006
RD7                               00000007
RE0                               00000000
RE1                               00000001
RE2                               00000002
READ_WRITE                        00000002
RP0                               00000005
RP1                               00000006
RSEN                              00000001
RX9                               00000006
RX9D                              00000000
R_NOT_W                           00000002
R_W                               00000002
S                                 00000003
SEN                               00000000
SMP                               00000007
SPBRG                             00000099
SPEN                              00000007
SREN                              00000005
SSAVE                             00000000
SSPADD                            00000093
SSPBUF                            00000013
SSPCON                            00000014
gpasm-1.4.0 #1106 (Oct  6 2014) obj\Release\e   7-19-2020  20:05:21         PAGE 19


SYMBOL TABLE
  LABEL                             VALUE 

SSPCON2                           00000091
SSPEN                             00000005
SSPIE                             00000003
SSPIF                             00000003
SSPM0                             00000000
SSPM1                             00000001
SSPM2                             00000002
SSPM3                             00000003
SSPOV                             00000006
SSPSTAT                           00000094
STATUS                            00000003
STK00                             00000000
STK01                             00000000
STK02                             00000000
STK03                             00000000
STK04                             00000000
STK05                             00000000
STK06                             00000000
STK07                             00000000
STK08                             00000000
STK09                             00000000
STK10                             00000000
STK11                             00000000
STK12                             00000000
SYNC                              00000004
T0CS                              00000005
T0IE                              00000005
T0IF                              00000002
T0SE                              00000004
T1CKPS0                           00000004
T1CKPS1                           00000005
T1CON                             00000010
T1INSYNC                          00000002
T1OSCEN                           00000003
T1SYNC                            00000002
T2CKPS0                           00000000
T2CKPS1                           00000001
T2CON                             00000012
TMR0                              00000001
TMR0IE                            00000005
TMR0IF                            00000002
TMR1                              0000000E
TMR1CS                            00000001
TMR1H                             0000000F
TMR1IE                            00000000
TMR1IF                            00000000
TMR1L                             0000000E
TMR1ON                            00000000
TMR2                              00000011
TMR2IE                            00000001
TMR2IF                            00000001
TMR2ON                            00000002
TOUTPS0                           00000003
gpasm-1.4.0 #1106 (Oct  6 2014) obj\Release\e   7-19-2020  20:05:21         PAGE 20


SYMBOL TABLE
  LABEL                             VALUE 

TOUTPS1                           00000004
TOUTPS2                           00000005
TOUTPS3                           00000006
TRISA                             00000085
TRISA0                            00000000
TRISA1                            00000001
TRISA2                            00000002
TRISA3                            00000003
TRISA4                            00000004
TRISA5                            00000005
TRISB                             00000086
TRISB0                            00000000
TRISB1                            00000001
TRISB2                            00000002
TRISB3                            00000003
TRISB4                            00000004
TRISB5                            00000005
TRISB6                            00000006
TRISB7                            00000007
TRISC                             00000087
TRISC0                            00000000
TRISC1                            00000001
TRISC2                            00000002
TRISC3                            00000003
TRISC4                            00000004
TRISC5                            00000005
TRISC6                            00000006
TRISC7                            00000007
TRISD                             00000088
TRISD0                            00000000
TRISD1                            00000001
TRISD2                            00000002
TRISD3                            00000003
TRISD4                            00000004
TRISD5                            00000005
TRISD6                            00000006
TRISD7                            00000007
TRISE                             00000089
TRISE0                            00000000
TRISE1                            00000001
TRISE2                            00000002
TRMT                              00000001
TX8_9                             00000006
TX9                               00000006
TX9D                              00000000
TXD8                              00000000
TXEN                              00000005
TXIE                              00000004
TXIF                              00000004
TXREG                             00000019
TXSTA                             00000098
UA                                00000001
W                                 00000000
gpasm-1.4.0 #1106 (Oct  6 2014) obj\Release\e   7-19-2020  20:05:21         PAGE 21


SYMBOL TABLE
  LABEL                             VALUE 

WCOL                              00000007
WR                                00000001
WREN                              00000002
WRERR                             00000003
WSAVE                             00000000
Z                                 00000002
_00106_DS_                        0000012B
_00107_DS_                        00000133
_00109_DS_                        00000152
_00110_DS_                        0000015A
_00116_DS_                        000000CD
_00117_DS_                        000000D5
_00119_DS_                        000000BA
_00122_DS_                        0000010A
_00134_DS_                        00000104
_00140_DS_                        0000001E
_00142_DS_                        00000084
_00147_DS_                        00000023
_00149_DS_                        000000A4
_00166_DS_                        00000049
_ADCON0                           00000000
_ADCON0bits                       00000000
_ADCON1                           00000000
_ADCON1bits                       00000000
_ADC_GetResult                    00000000
_ADC_Init                         00000000
_ADC_Update                       00000000
_ADRESH                           00000000
_ADRESL                           00000000
_BODEN_OFF                        00003FBF
_BODEN_ON                         00003FFF
_BOREN_OFF                        00003FBF
_BOREN_ON                         00003FFF
_CCP1CON                          00000000
_CCP1CONbits                      00000000
_CCP2CON                          00000000
_CCP2CONbits                      00000000
_CCPR1                            00000000
_CCPR1H                           00000000
_CCPR1L                           00000000
_CCPR2                            00000000
_CCPR2H                           00000000
_CCPR2L                           00000000
_CMCON                            00000000
_CMCONbits                        00000000
_CONFIG                           00002007
_CPD_OFF                          00003FFF
_CPD_ON                           00003EFF
_CP_ALL                           00001FFF
_CP_OFF                           00003FFF
_CP_ON                            00001FFF
_CVRCON                           00000000
_CVRCONbits                       00000000
gpasm-1.4.0 #1106 (Oct  6 2014) obj\Release\e   7-19-2020  20:05:21         PAGE 22


SYMBOL TABLE
  LABEL                             VALUE 

_Cooler_GetState                  00000000
_Cooler_Init                      00000000
_Cooler_SetState                  00000000
_Cooler_update                    00000000
_Counters                         00000000
_DEBUG_OFF                        00003FFF
_DEBUG_ON                         000037FF
_DEVID1                           00002006
_EEADR                            00000000
_EEADRH                           00000000
_EECON1                           00000000
_EECON1bits                       00000000
_EECON2                           00000000
_EEDATA                           00000000
_EEDATH                           00000000
_FOSC_EXTRC                       00003FFF
_FOSC_HS                          00003FFE
_FOSC_LP                          00003FFC
_FOSC_XT                          00003FFD
_FSR                              00000000
_Flags                            00000000
_GPIO_GetPortPinState             00000000
_GPIO_InitPort                    00000000
_GPIO_InitPortPin                 00000000
_GPIO_SetPortPinState             00000000
_GPIO_SetPortState                00000000
_GPIO_Update                      00000000
_HS_OSC                           00003FFE
_Heater_GetState                  00000000
_Heater_Init                      00000000
_Heater_update                    00000000
_I2C_Begin                        00000000
_I2C_End                          00000000
_I2C_Hold                         00000000
_I2C_Init                         00000000
_I2C_Read                         00000000
_I2C_Write                        00000000
_IDLOC0                           00002000
_IDLOC1                           00002001
_IDLOC2                           00002002
_IDLOC3                           00002003
_INDF                             00000000
_INTCON                           00000000
_INTCONbits                       00000000
_LED_GetState                     00000000
_LED_Init                         00000000
_LED_Update                       00000000
_LP_OSC                           00003FFC
_LVP_OFF                          00003F7F
_LVP_ON                           00003FFF
_OPTION_REG                       00000000
_OPTION_REGbits                   00000000
_PB_GetState                      00000000
gpasm-1.4.0 #1106 (Oct  6 2014) obj\Release\e   7-19-2020  20:05:21         PAGE 23


SYMBOL TABLE
  LABEL                             VALUE 

_PB_Init                          00000000
_PB_Update                        00000000
_PCL                              00000000
_PCLATH                           00000000
_PCON                             00000000
_PCONbits                         00000000
_PIE1                             00000000
_PIE1bits                         00000000
_PIE2                             00000000
_PIE2bits                         00000000
_PIR1                             00000000
_PIR1bits                         00000000
_PIR2                             00000000
_PIR2bits                         00000000
_PORTA                            00000000
_PORTAbits                        00000000
_PORTB                            00000000
_PORTBbits                        00000000
_PORTC                            00000000
_PORTCbits                        00000000
_PORTD                            00000000
_PORTDbits                        00000000
_PORTE                            00000000
_PORTEbits                        00000000
_PR2                              00000000
_PWRTE_OFF                        00003FFF
_PWRTE_ON                         00003FF7
_RCREG                            00000000
_RCSTA                            00000000
_RCSTAbits                        00000000
_RC_OSC                           00003FFF
_Readings                         00000000
_SPBRG                            00000000
_SSD_GET_Symbol                   00000000
_SSD_GET_state                    00000000
_SSD_Init                         00000000
_SSD_SET_Symbol                   00000000
_SSD_SET_state                    00000000
_SSD_update                       00000000
_SSPADD                           00000000
_SSPBUF                           00000000
_SSPCON                           00000000
_SSPCON2                          00000000
_SSPCON2bits                      00000000
_SSPCONbits                       00000000
_SSPSTAT                          00000000
_SSPSTATbits                      00000000
_STATUS                           00000000
_STATUSbits                       00000000
_SettingMode_update               00000000
_Start_conversion_Int             00000000
_T1CON                            00000000
_T1CONbits                        00000000
gpasm-1.4.0 #1106 (Oct  6 2014) obj\Release\e   7-19-2020  20:05:21         PAGE 24


SYMBOL TABLE
  LABEL                             VALUE 

_T2CON                            00000000
_T2CONbits                        00000000
_TMR0                             00000000
_TMR0_Init                        00000000
_TMR0_Start                       00000000
_TMR0_Update                      00000000
_TMR1                             00000000
_TMR1H                            00000000
_TMR1L                            00000000
_TMR2                             00000000
_TRISA                            00000000
_TRISAbits                        00000000
_TRISB                            00000000
_TRISBbits                        00000000
_TRISC                            00000000
_TRISCbits                        00000000
_TRISD                            00000000
_TRISDbits                        00000000
_TRISE                            00000000
_TRISEbits                        00000000
_TXREG                            00000000
_TXSTA                            00000000
_TXSTAbits                        00000000
_Temprature_Init                  00000000
_Temprature_update                00000000
_UTIL_DelayMS                     00000000
_WDTE_OFF                         00003FFB
_WDTE_ON                          00003FFF
_WDT_OFF                          00003FFB
_WDT_ON                           00003FFF
_WRT_1FOURTH                      00003BFF
_WRT_256                          00003DFF
_WRT_HALF                         000039FF
_WRT_OFF                          00003FFF
_XT_OSC                           00003FFD
__16F877A                         00000001
__CODE_END                        00001FFF
__CODE_START                      00000000
__COMMON_RAM_END                  0000007F
__COMMON_RAM_START                00000070
__EEPROM_END                      000021FF
__EEPROM_START                    00002100
__VECTOR_INT                      00000004
__VECTOR_RESET                    00000000
_code_eeprom_ext_00BD             000000BD
_code_eeprom_ext_00CA             000000CA
_code_eeprom_ext_00D3             000000D3
_code_eeprom_ext_00DF             000000DF
_code_eeprom_ext_00E9             000000E9
_code_eeprom_ext_00EE             000000EE
_code_eeprom_ext_011B             0000011B
_code_eeprom_ext_0128             00000128
_code_eeprom_ext_0131             00000131
gpasm-1.4.0 #1106 (Oct  6 2014) obj\Release\e   7-19-2020  20:05:21         PAGE 25


SYMBOL TABLE
  LABEL                             VALUE 

_code_eeprom_ext_013D             0000013D
_code_eeprom_ext_0142             00000142
_code_eeprom_ext_014F             0000014F
_code_eeprom_ext_0158             00000158
_code_eeprom_ext_0160             00000160
_code_eeprom_ext_016B             0000016B
_e2pex_update                     00000000
_e2pext_r                         0000010B
_e2pext_w                         000000A5
r0x1018                           00000001
r0x1019                           00000000
r0x101A                           00000002
r0x101B                           00000003
r0x101E                           00000005
r0x101F                           00000004
r0x1020                           00000006
r0x1021                           00000007
r0x1022                           00000008
r0x1023                           00000009
r0x1024                           0000000A
r0x1025                           0000000B
r0x1026                           0000000C
r0x1027                           0000000D
r0x1028                           0000000E
r0x1029                           0000000F
r0x102A                           00000010
r0x102B                           00000011
r0x102C                           00000012

Errors   :     0
Warnings :     0 reported,     0 suppressed
Messages :     0 reported,     0 suppressed

