gpasm-1.4.0 #1106 (Oct  6 2014) obj\Release\l   7-17-2020  06:58:43         PAGE  1


LOC    OBJECT CODE    LINE  SOURCE TEXT
  VALUE

                      00001 ;--------------------------------------------------------
                      00002 ; File Created by SDCC : free open source ANSI-C Compiler
                      00003 ; Version 3.5.0 #9253 (Jun 20 2015) (MINGW32)
                      00004 ; This file was generated Fri Jul 17 06:58:43 2020
                      00005 ;--------------------------------------------------------
                      00006 ; PIC port for the 14-bit core
                      00007 ;--------------------------------------------------------
                      00008 ;       .file   "led.c"
                      00009         list    p=16f877a
                      00010         radix dec
                      00011         include "p16f877a.inc"
                      00001         LIST
                      00002 
                      00003 ;==========================================================================
                      00004 ; Build date : Aug 07 2014
                      00005 ;  MPASM PIC16F877A processor include
                      00006 ; 
                      00007 ;  (c) Copyright 1999-2014 Microchip Technology, All rights reserved
                      00008 ;==========================================================================
                      00009 
                      00567         LIST
                      00012 ;--------------------------------------------------------
                      00013 ; external declarations
                      00014 ;--------------------------------------------------------
  0000                00015         extern  _GPIO_InitPortPin
  0000                00016         extern  _GPIO_InitPort
  0000                00017         extern  _GPIO_Update
  0000                00018         extern  _GPIO_SetPortPinState
  0000                00019         extern  _GPIO_SetPortState
  0000                00020         extern  _GPIO_GetPortPinState
  0000                00021         extern  _UTIL_DelayMS
  0000                00022         extern  _PB_Init
  0000                00023         extern  _PB_Update
  0000                00024         extern  _PB_GetState
  0000                00025         extern  _ADC_Init
  0000                00026         extern  _ADC_Update
  0000                00027         extern  _ADC_GetResult
  0000                00028         extern  _Start_conversion_Int
  0000                00029         extern  _Temprature_Init
  0000                00030         extern  _Temprature_update
  0000                00031         extern  _Cooler_Init
  0000                00032         extern  _Cooler_SetState
  0000                00033         extern  _Cooler_GetState
  0000                00034         extern  _Cooler_update
  0000                00035         extern  _Heater_Init
  0000                00036         extern  _Heater_SetState
  0000                00037         extern  _Heater_GetState
  0000                00038         extern  _Heater_update
  0000                00039         extern  _SettingMode_update
  0000                00040         extern  _SettingMode_Get_SSD_state
  0000                00041         extern  _SettingMode_OFF_mode
  0000                00042         extern  _SSD_Init
  0000                00043         extern  _SSD_SET_Symbol
gpasm-1.4.0 #1106 (Oct  6 2014) obj\Release\l   7-17-2020  06:58:43         PAGE  2


LOC    OBJECT CODE    LINE  SOURCE TEXT
  VALUE

  0000                00044         extern  _SSD_SET_state
  0000                00045         extern  _SSD_GET_state
  0000                00046         extern  _SSD_GET_Symbol
  0000                00047         extern  _SSD_update
  0000                00048         extern  _TMR0_Init
  0000                00049         extern  _TMR0_Update
  0000                00050         extern  _TMR0_Start
  0000                00051         extern  _STATUSbits
  0000                00052         extern  _PORTAbits
  0000                00053         extern  _PORTBbits
  0000                00054         extern  _PORTCbits
  0000                00055         extern  _PORTDbits
  0000                00056         extern  _PORTEbits
  0000                00057         extern  _INTCONbits
  0000                00058         extern  _PIR1bits
  0000                00059         extern  _PIR2bits
  0000                00060         extern  _T1CONbits
  0000                00061         extern  _T2CONbits
  0000                00062         extern  _SSPCONbits
  0000                00063         extern  _CCP1CONbits
  0000                00064         extern  _RCSTAbits
  0000                00065         extern  _CCP2CONbits
  0000                00066         extern  _ADCON0bits
  0000                00067         extern  _OPTION_REGbits
  0000                00068         extern  _TRISAbits
  0000                00069         extern  _TRISBbits
  0000                00070         extern  _TRISCbits
  0000                00071         extern  _TRISDbits
  0000                00072         extern  _TRISEbits
  0000                00073         extern  _PIE1bits
  0000                00074         extern  _PIE2bits
  0000                00075         extern  _PCONbits
  0000                00076         extern  _SSPCON2bits
  0000                00077         extern  _SSPSTATbits
  0000                00078         extern  _TXSTAbits
  0000                00079         extern  _CMCONbits
  0000                00080         extern  _CVRCONbits
  0000                00081         extern  _ADCON1bits
  0000                00082         extern  _EECON1bits
  0000                00083         extern  _Counters
  0000                00084         extern  _Flags
  0000                00085         extern  _Readings
  0000                00086         extern  _INDF
  0000                00087         extern  _TMR0
  0000                00088         extern  _PCL
  0000                00089         extern  _STATUS
  0000                00090         extern  _FSR
  0000                00091         extern  _PORTA
  0000                00092         extern  _PORTB
  0000                00093         extern  _PORTC
  0000                00094         extern  _PORTD
  0000                00095         extern  _PORTE
  0000                00096         extern  _PCLATH
gpasm-1.4.0 #1106 (Oct  6 2014) obj\Release\l   7-17-2020  06:58:43         PAGE  3


LOC    OBJECT CODE    LINE  SOURCE TEXT
  VALUE

  0000                00097         extern  _INTCON
  0000                00098         extern  _PIR1
  0000                00099         extern  _PIR2
  0000                00100         extern  _TMR1
  0000                00101         extern  _TMR1L
  0000                00102         extern  _TMR1H
  0000                00103         extern  _T1CON
  0000                00104         extern  _TMR2
  0000                00105         extern  _T2CON
  0000                00106         extern  _SSPBUF
  0000                00107         extern  _SSPCON
  0000                00108         extern  _CCPR1
  0000                00109         extern  _CCPR1L
  0000                00110         extern  _CCPR1H
  0000                00111         extern  _CCP1CON
  0000                00112         extern  _RCSTA
  0000                00113         extern  _TXREG
  0000                00114         extern  _RCREG
  0000                00115         extern  _CCPR2
  0000                00116         extern  _CCPR2L
  0000                00117         extern  _CCPR2H
  0000                00118         extern  _CCP2CON
  0000                00119         extern  _ADRESH
  0000                00120         extern  _ADCON0
  0000                00121         extern  _OPTION_REG
  0000                00122         extern  _TRISA
  0000                00123         extern  _TRISB
  0000                00124         extern  _TRISC
  0000                00125         extern  _TRISD
  0000                00126         extern  _TRISE
  0000                00127         extern  _PIE1
  0000                00128         extern  _PIE2
  0000                00129         extern  _PCON
  0000                00130         extern  _SSPCON2
  0000                00131         extern  _PR2
  0000                00132         extern  _SSPADD
  0000                00133         extern  _SSPSTAT
  0000                00134         extern  _TXSTA
  0000                00135         extern  _SPBRG
  0000                00136         extern  _CMCON
  0000                00137         extern  _CVRCON
  0000                00138         extern  _ADRESL
  0000                00139         extern  _ADCON1
  0000                00140         extern  _EEDATA
  0000                00141         extern  _EEADR
  0000                00142         extern  _EEDATH
  0000                00143         extern  _EEADRH
  0000                00144         extern  _EECON1
  0000                00145         extern  _EECON2
                      00146 
  0000                00147         extern PSAVE
  0000                00148         extern SSAVE
  0000                00149         extern WSAVE
gpasm-1.4.0 #1106 (Oct  6 2014) obj\Release\l   7-17-2020  06:58:43         PAGE  4


LOC    OBJECT CODE    LINE  SOURCE TEXT
  VALUE

  0000                00150         extern STK12
  0000                00151         extern STK11
  0000                00152         extern STK10
  0000                00153         extern STK09
  0000                00154         extern STK08
  0000                00155         extern STK07
  0000                00156         extern STK06
  0000                00157         extern STK05
  0000                00158         extern STK04
  0000                00159         extern STK03
  0000                00160         extern STK02
  0000                00161         extern STK01
  0000                00162         extern STK00
                      00163 ;--------------------------------------------------------
                      00164 ; global declarations
                      00165 ;--------------------------------------------------------
  0000                00166         global  _LED_SetState
  0000                00167         global  _LED_GetState
  0000                00168         global  _LED_Update
  0000                00169         global  _LED_Init
                      00170 
                      00171 ;--------------------------------------------------------
                      00172 ; global definitions
                      00173 ;--------------------------------------------------------
                      00174 ;--------------------------------------------------------
                      00175 ; absolute symbol definitions
                      00176 ;--------------------------------------------------------
                      00177 ;--------------------------------------------------------
                      00178 ; compiler-defined variables
                      00179 ;--------------------------------------------------------
                      00180 UDL_led_0       udata
0000                  00181 r0x1011 res     1
0001                  00182 r0x1012 res     1
0002                  00183 r0x1010 res     1
0003                  00184 r0x100B res     1
0004                  00185 r0x100C res     1
0005                  00186 r0x100E res     1
                      00187 ;--------------------------------------------------------
                      00188 ; initialized data
                      00189 ;--------------------------------------------------------
                      00190 ;--------------------------------------------------------
                      00191 ; overlayable items in internal ram 
                      00192 ;--------------------------------------------------------
                      00193 ;       udata_ovr
                      00194 ;--------------------------------------------------------
                      00195 ; code
                      00196 ;--------------------------------------------------------
                      00197 code_led        code
                      00198 ;***
                      00199 ;  pBlock Stats: dbName = C
                      00200 ;***
                      00201 ;entry:  _LED_Toggle    ;Function start
                      00202 ; 2 exit points
gpasm-1.4.0 #1106 (Oct  6 2014) obj\Release\l   7-17-2020  06:58:43         PAGE  5


LOC    OBJECT CODE    LINE  SOURCE TEXT
  VALUE

                      00203 ;has an exit
                      00204 ;functions called:
                      00205 ;   _LED_GetState
                      00206 ;   _LED_SetState
                      00207 ;   _LED_SetState
                      00208 ;   _LED_GetState
                      00209 ;   _LED_SetState
                      00210 ;   _LED_SetState
                      00211 ;3 compiler assigned registers:
                      00212 ;   r0x100E
                      00213 ;   r0x100F
                      00214 ;   STK00
                      00215 ;; Starting pCode block
0000                  00216 _LED_Toggle     ;Function start
                      00217 ; 2 exit points
                      00218 ;       .line   116; "led.c"    static void LED_Toggle(tLED led)
0000   ???? ????      00219         BANKSEL r0x100E
0002   00??           00220         MOVWF   r0x100E
                      00221 ;       .line   118; "led.c"    if (LED_GetState(led) == LED_ON)
0003   2???           00222         CALL    _LED_GetState
                      00223 ;;1     MOVWF   r0x100F
0004   3A01           00224         XORLW   0x01
0005   1D03           00225         BTFSS   STATUS,2
0006   2???           00226         GOTO    _00233_DS_
                      00227 ;       .line   120; "led.c"    LED_SetState(led, LED_OFF);
0007   3000           00228         MOVLW   0x00
0008   00??           00229         MOVWF   STK00
0009   ???? ????      00230         BANKSEL r0x100E
000B   08??           00231         MOVF    r0x100E,W
000C   2???           00232         CALL    _LED_SetState
000D   2???           00233         GOTO    _00235_DS_
000E                  00234 _00233_DS_
                      00235 ;       .line   124; "led.c"    LED_SetState(led, LED_ON);
000E   3001           00236         MOVLW   0x01
000F   00??           00237         MOVWF   STK00
0010   ???? ????      00238         BANKSEL r0x100E
0012   08??           00239         MOVF    r0x100E,W
0013   2???           00240         CALL    _LED_SetState
0014                  00241 _00235_DS_
0014   0008           00242         RETURN  
                      00243 ; exit point of _LED_Toggle
                      00244 
                      00245 ;***
                      00246 ;  pBlock Stats: dbName = C
                      00247 ;***
                      00248 ;entry:  _LED_SetState  ;Function start
                      00249 ; 2 exit points
                      00250 ;has an exit
                      00251 ;functions called:
                      00252 ;   _GPIO_SetPortPinState
                      00253 ;   _GPIO_SetPortPinState
                      00254 ;   _GPIO_SetPortPinState
                      00255 ;   _GPIO_SetPortPinState
gpasm-1.4.0 #1106 (Oct  6 2014) obj\Release\l   7-17-2020  06:58:43         PAGE  6


LOC    OBJECT CODE    LINE  SOURCE TEXT
  VALUE

                      00256 ;   _GPIO_SetPortPinState
                      00257 ;   _GPIO_SetPortPinState
                      00258 ;   _GPIO_SetPortPinState
                      00259 ;   _GPIO_SetPortPinState
                      00260 ;   _GPIO_SetPortPinState
                      00261 ;   _GPIO_SetPortPinState
                      00262 ;5 compiler assigned registers:
                      00263 ;   r0x100B
                      00264 ;   STK00
                      00265 ;   r0x100C
                      00266 ;   r0x100D
                      00267 ;   STK01
                      00268 ;; Starting pCode block
0015                  00269 _LED_SetState   ;Function start
                      00270 ; 2 exit points
                      00271 ;       .line   90; "led.c"     void LED_SetState(tLED led, tLED_State state)
0015   ???? ????      00272         BANKSEL r0x100B
0017   00??           00273         MOVWF   r0x100B
0018   08??           00274         MOVF    STK00,W
0019   00??           00275         MOVWF   r0x100C
                      00276 ;       .line   92; "led.c"     switch(led)
001A   08??           00277         MOVF    r0x100B,W
                      00278 ;;1     MOVWF   r0x100D
001B   1903           00279         BTFSC   STATUS,2
001C   2???           00280         GOTO    _00199_DS_
001D   08??           00281         MOVF    r0x100B,W
001E   3A01           00282         XORLW   0x01
001F   1903           00283         BTFSC   STATUS,2
0020   2???           00284         GOTO    _00200_DS_
0021   08??           00285         MOVF    r0x100B,W
0022   3A02           00286         XORLW   0x02
0023   1903           00287         BTFSC   STATUS,2
0024   2???           00288         GOTO    _00201_DS_
0025   08??           00289         MOVF    r0x100B,W
0026   3A03           00290         XORLW   0x03
0027   1903           00291         BTFSC   STATUS,2
0028   2???           00292         GOTO    _00202_DS_
0029   08??           00293         MOVF    r0x100B,W
002A   3A07           00294         XORLW   0x07
002B   1903           00295         BTFSC   STATUS,2
002C   2???           00296         GOTO    _00203_DS_
002D   2???           00297         GOTO    _00206_DS_
002E                  00298 _00199_DS_
                      00299 ;       .line   95; "led.c"     GPIO_SetPortPinState(PORT_B, 0, state);
002E   ???? ????      00300         BANKSEL r0x100C
0030   08??           00301         MOVF    r0x100C,W
0031   00??           00302         MOVWF   STK01
0032   3000           00303         MOVLW   0x00
0033   00??           00304         MOVWF   STK00
0034   3001           00305         MOVLW   0x01
0035   ???? ????      00306         PAGESEL _GPIO_SetPortPinState
0037   2???           00307         CALL    _GPIO_SetPortPinState
0038   ???? ????      00308         PAGESEL $
gpasm-1.4.0 #1106 (Oct  6 2014) obj\Release\l   7-17-2020  06:58:43         PAGE  7


LOC    OBJECT CODE    LINE  SOURCE TEXT
  VALUE

                      00309 ;       .line   96; "led.c"     break;
003A   2???           00310         GOTO    _00206_DS_
003B                  00311 _00200_DS_
                      00312 ;       .line   98; "led.c"     GPIO_SetPortPinState(PORT_B, 1, state);
003B   ???? ????      00313         BANKSEL r0x100C
003D   08??           00314         MOVF    r0x100C,W
003E   00??           00315         MOVWF   STK01
003F   3001           00316         MOVLW   0x01
0040   00??           00317         MOVWF   STK00
0041   3001           00318         MOVLW   0x01
0042   ???? ????      00319         PAGESEL _GPIO_SetPortPinState
0044   2???           00320         CALL    _GPIO_SetPortPinState
0045   ???? ????      00321         PAGESEL $
                      00322 ;       .line   99; "led.c"     break;
0047   2???           00323         GOTO    _00206_DS_
0048                  00324 _00201_DS_
                      00325 ;       .line   101; "led.c"    GPIO_SetPortPinState(PORT_B, 2, state);
0048   ???? ????      00326         BANKSEL r0x100C
004A   08??           00327         MOVF    r0x100C,W
004B   00??           00328         MOVWF   STK01
004C   3002           00329         MOVLW   0x02
004D   00??           00330         MOVWF   STK00
004E   3001           00331         MOVLW   0x01
004F   ???? ????      00332         PAGESEL _GPIO_SetPortPinState
0051   2???           00333         CALL    _GPIO_SetPortPinState
0052   ???? ????      00334         PAGESEL $
                      00335 ;       .line   102; "led.c"    break;
0054   2???           00336         GOTO    _00206_DS_
0055                  00337 _00202_DS_
                      00338 ;       .line   104; "led.c"    GPIO_SetPortPinState(PORT_B, 3, state);
0055   ???? ????      00339         BANKSEL r0x100C
0057   08??           00340         MOVF    r0x100C,W
0058   00??           00341         MOVWF   STK01
0059   3003           00342         MOVLW   0x03
005A   00??           00343         MOVWF   STK00
005B   3001           00344         MOVLW   0x01
005C   ???? ????      00345         PAGESEL _GPIO_SetPortPinState
005E   2???           00346         CALL    _GPIO_SetPortPinState
005F   ???? ????      00347         PAGESEL $
                      00348 ;       .line   105; "led.c"    break;
0061   2???           00349         GOTO    _00206_DS_
0062                  00350 _00203_DS_
                      00351 ;       .line   107; "led.c"    GPIO_SetPortPinState(PORT_B, 7, state);
0062   ???? ????      00352         BANKSEL r0x100C
0064   08??           00353         MOVF    r0x100C,W
0065   00??           00354         MOVWF   STK01
0066   3007           00355         MOVLW   0x07
0067   00??           00356         MOVWF   STK00
0068   3001           00357         MOVLW   0x01
0069   ???? ????      00358         PAGESEL _GPIO_SetPortPinState
006B   2???           00359         CALL    _GPIO_SetPortPinState
006C   ???? ????      00360         PAGESEL $
006E                  00361 _00206_DS_
gpasm-1.4.0 #1106 (Oct  6 2014) obj\Release\l   7-17-2020  06:58:43         PAGE  8


LOC    OBJECT CODE    LINE  SOURCE TEXT
  VALUE

                      00362 ;       .line   112; "led.c"    }
006E   0008           00363         RETURN  
                      00364 ; exit point of _LED_SetState
                      00365 
                      00366 ;***
                      00367 ;  pBlock Stats: dbName = C
                      00368 ;***
                      00369 ;entry:  _LED_GetState  ;Function start
                      00370 ; 2 exit points
                      00371 ;has an exit
                      00372 ;functions called:
                      00373 ;   _GPIO_GetPortPinState
                      00374 ;   _GPIO_GetPortPinState
                      00375 ;   _GPIO_GetPortPinState
                      00376 ;   _GPIO_GetPortPinState
                      00377 ;   _GPIO_GetPortPinState
                      00378 ;   _GPIO_GetPortPinState
                      00379 ;   _GPIO_GetPortPinState
                      00380 ;   _GPIO_GetPortPinState
                      00381 ;   _GPIO_GetPortPinState
                      00382 ;   _GPIO_GetPortPinState
                      00383 ;4 compiler assigned registers:
                      00384 ;   r0x100B
                      00385 ;   r0x100C
                      00386 ;   r0x100D
                      00387 ;   STK00
                      00388 ;; Starting pCode block
006F                  00389 _LED_GetState   ;Function start
                      00390 ; 2 exit points
                      00391 ;       .line   61; "led.c"     tLED_State LED_GetState(tLED led)
006F   ???? ????      00392         BANKSEL r0x100B
0071   00??           00393         MOVWF   r0x100B
                      00394 ;       .line   63; "led.c"     tLED_State ret = LED_OFF;
0072   01??           00395         CLRF    r0x100C
                      00396 ;       .line   65; "led.c"     switch(led)
0073   08??           00397         MOVF    r0x100B,W
                      00398 ;;1     MOVWF   r0x100D
0074   1903           00399         BTFSC   STATUS,2
0075   2???           00400         GOTO    _00166_DS_
0076   08??           00401         MOVF    r0x100B,W
0077   3A01           00402         XORLW   0x01
0078   1903           00403         BTFSC   STATUS,2
0079   2???           00404         GOTO    _00167_DS_
007A   08??           00405         MOVF    r0x100B,W
007B   3A02           00406         XORLW   0x02
007C   1903           00407         BTFSC   STATUS,2
007D   2???           00408         GOTO    _00168_DS_
007E   08??           00409         MOVF    r0x100B,W
007F   3A03           00410         XORLW   0x03
0080   1903           00411         BTFSC   STATUS,2
0081   2???           00412         GOTO    _00169_DS_
0082   08??           00413         MOVF    r0x100B,W
0083   3A07           00414         XORLW   0x07
gpasm-1.4.0 #1106 (Oct  6 2014) obj\Release\l   7-17-2020  06:58:43         PAGE  9


LOC    OBJECT CODE    LINE  SOURCE TEXT
  VALUE

0084   1903           00415         BTFSC   STATUS,2
0085   2???           00416         GOTO    _00170_DS_
0086   2???           00417         GOTO    _00172_DS_
0087                  00418 _00166_DS_
                      00419 ;       .line   68; "led.c"     ret = GPIO_GetPortPinState(PORT_B, 0);
0087   3000           00420         MOVLW   0x00
0088   00??           00421         MOVWF   STK00
0089   3001           00422         MOVLW   0x01
008A   ???? ????      00423         PAGESEL _GPIO_GetPortPinState
008C   2???           00424         CALL    _GPIO_GetPortPinState
008D   ???? ????      00425         PAGESEL $
008F   ???? ????      00426         BANKSEL r0x100C
0091   00??           00427         MOVWF   r0x100C
                      00428 ;       .line   69; "led.c"     break;
0092   2???           00429         GOTO    _00172_DS_
0093                  00430 _00167_DS_
                      00431 ;       .line   71; "led.c"     ret = GPIO_GetPortPinState(PORT_B, 1);
0093   3001           00432         MOVLW   0x01
0094   00??           00433         MOVWF   STK00
0095   3001           00434         MOVLW   0x01
0096   ???? ????      00435         PAGESEL _GPIO_GetPortPinState
0098   2???           00436         CALL    _GPIO_GetPortPinState
0099   ???? ????      00437         PAGESEL $
009B   ???? ????      00438         BANKSEL r0x100C
009D   00??           00439         MOVWF   r0x100C
                      00440 ;       .line   72; "led.c"     break;
009E   2???           00441         GOTO    _00172_DS_
009F                  00442 _00168_DS_
                      00443 ;       .line   74; "led.c"     ret = GPIO_GetPortPinState(PORT_B, 2);
009F   3002           00444         MOVLW   0x02
00A0   00??           00445         MOVWF   STK00
00A1   3001           00446         MOVLW   0x01
00A2   ???? ????      00447         PAGESEL _GPIO_GetPortPinState
00A4   2???           00448         CALL    _GPIO_GetPortPinState
00A5   ???? ????      00449         PAGESEL $
00A7   ???? ????      00450         BANKSEL r0x100C
00A9   00??           00451         MOVWF   r0x100C
                      00452 ;       .line   75; "led.c"     break;
00AA   2???           00453         GOTO    _00172_DS_
00AB                  00454 _00169_DS_
                      00455 ;       .line   77; "led.c"     ret = GPIO_GetPortPinState(PORT_B, 3);
00AB   3003           00456         MOVLW   0x03
00AC   00??           00457         MOVWF   STK00
00AD   3001           00458         MOVLW   0x01
00AE   ???? ????      00459         PAGESEL _GPIO_GetPortPinState
00B0   2???           00460         CALL    _GPIO_GetPortPinState
00B1   ???? ????      00461         PAGESEL $
00B3   ???? ????      00462         BANKSEL r0x100C
00B5   00??           00463         MOVWF   r0x100C
                      00464 ;       .line   78; "led.c"     break;
00B6   2???           00465         GOTO    _00172_DS_
00B7                  00466 _00170_DS_
                      00467 ;       .line   80; "led.c"     ret = GPIO_GetPortPinState(PORT_B, 7);
gpasm-1.4.0 #1106 (Oct  6 2014) obj\Release\l   7-17-2020  06:58:43         PAGE 10


LOC    OBJECT CODE    LINE  SOURCE TEXT
  VALUE

00B7   3007           00468         MOVLW   0x07
00B8   00??           00469         MOVWF   STK00
00B9   3001           00470         MOVLW   0x01
00BA   ???? ????      00471         PAGESEL _GPIO_GetPortPinState
00BC   2???           00472         CALL    _GPIO_GetPortPinState
00BD   ???? ????      00473         PAGESEL $
00BF   ???? ????      00474         BANKSEL r0x100C
00C1   00??           00475         MOVWF   r0x100C
00C2                  00476 _00172_DS_
                      00477 ;       .line   87; "led.c"     return ret;
00C2   ???? ????      00478         BANKSEL r0x100C
00C4   08??           00479         MOVF    r0x100C,W
00C5   0008           00480         RETURN  
                      00481 ; exit point of _LED_GetState
                      00482 
                      00483 ;***
                      00484 ;  pBlock Stats: dbName = C
                      00485 ;***
                      00486 ;entry:  _LED_Update    ;Function start
                      00487 ; 2 exit points
                      00488 ;has an exit
                      00489 ;functions called:
                      00490 ;   _LED_SetState
                      00491 ;   _LED_Toggle
                      00492 ;   _LED_SetState
                      00493 ;   _LED_SetState
                      00494 ;   _LED_Toggle
                      00495 ;   _LED_SetState
                      00496 ;2 compiler assigned registers:
                      00497 ;   r0x1010
                      00498 ;   STK00
                      00499 ;; Starting pCode block
00C6                  00500 _LED_Update     ;Function start
                      00501 ; 2 exit points
                      00502 ;       .line   39; "led.c"     switch(Flags.Toggle_led)
00C6   ???? ????      00503         BANKSEL _Flags
00C8   08??           00504         MOVF    (_Flags + 1),W
00C9   ???? ????      00505         BANKSEL r0x1010
00CB   00??           00506         MOVWF   r0x1010
00CC   1903           00507         BTFSC   STATUS,2
00CD   2???           00508         GOTO    _00138_DS_
00CE   08??           00509         MOVF    r0x1010,W
00CF   3A01           00510         XORLW   0x01
00D0   1903           00511         BTFSC   STATUS,2
00D1   2???           00512         GOTO    _00139_DS_
00D2   08??           00513         MOVF    r0x1010,W
00D3   3A03           00514         XORLW   0x03
00D4   1903           00515         BTFSC   STATUS,2
00D5   2???           00516         GOTO    _00142_DS_
00D6   2???           00517         GOTO    _00145_DS_
00D7                  00518 _00138_DS_
                      00519 ;       .line   42; "led.c"     LED_SetState(LED_7,LED_ON);
00D7   3001           00520         MOVLW   0x01
gpasm-1.4.0 #1106 (Oct  6 2014) obj\Release\l   7-17-2020  06:58:43         PAGE 11


LOC    OBJECT CODE    LINE  SOURCE TEXT
  VALUE

00D8   00??           00521         MOVWF   STK00
00D9   3007           00522         MOVLW   0x07
00DA   ???? ????      00523         PAGESEL _LED_SetState
00DC   2???           00524         CALL    _LED_SetState
00DD   ???? ????      00525         PAGESEL $
                      00526 ;       .line   43; "led.c"     break;
00DF   2???           00527         GOTO    _00145_DS_
00E0                  00528 _00139_DS_
                      00529 ;       .line   45; "led.c"     if(Counters.Led_counter == 50)
00E0   ???? ????      00530         BANKSEL _Counters
00E2   08??           00531         MOVF    (_Counters + 4),W
00E3   ???? ????      00532         BANKSEL r0x1010
00E5   00??           00533         MOVWF   r0x1010
00E6   3A32           00534         XORLW   0x32
00E7   1D03           00535         BTFSS   STATUS,2
00E8   2???           00536         GOTO    _00141_DS_
                      00537 ;       .line   47; "led.c"     LED_Toggle(LED_7);
00E9   3007           00538         MOVLW   0x07
00EA   2???           00539         CALL    _LED_Toggle
                      00540 ;;/home/sdcc-builder/build/sdcc-build/orig/sdcc/src/pic14/gen.c:6461: size=0, offset=0, AOP_TYPE(res)=8
                      00541 ;       .line   48; "led.c"     Counters.Led_counter = 0 ;
00EB   ???? ????      00542         BANKSEL _Counters
00ED   01??           00543         CLRF    (_Counters + 4)
00EE                  00544 _00141_DS_
                      00545 ;       .line   50; "led.c"     Counters.Led_counter++ ;
00EE   ???? ????      00546         BANKSEL _Counters
00F0   08??           00547         MOVF    (_Counters + 4),W
00F1   ???? ????      00548         BANKSEL r0x1010
00F3   00??           00549         MOVWF   r0x1010
00F4   0A??           00550         INCF    r0x1010,F
                      00551 ;;/home/sdcc-builder/build/sdcc-build/orig/sdcc/src/pic14/gen.c:6461: size=0, offset=0, AOP_TYPE(res)=8
00F5   08??           00552         MOVF    r0x1010,W
00F6   ???? ????      00553         BANKSEL _Counters
00F8   00??           00554         MOVWF   (_Counters + 4)
                      00555 ;       .line   51; "led.c"     break;
00F9   2???           00556         GOTO    _00145_DS_
00FA                  00557 _00142_DS_
                      00558 ;       .line   53; "led.c"     LED_SetState(LED_7,LED_OFF);
00FA   3000           00559         MOVLW   0x00
00FB   00??           00560         MOVWF   STK00
00FC   3007           00561         MOVLW   0x07
00FD   ???? ????      00562         PAGESEL _LED_SetState
00FF   2???           00563         CALL    _LED_SetState
0100   ???? ????      00564         PAGESEL $
0102                  00565 _00145_DS_
                      00566 ;       .line   57; "led.c"     }
0102   0008           00567         RETURN  
                      00568 ; exit point of _LED_Update
                      00569 
                      00570 ;***
                      00571 ;  pBlock Stats: dbName = C
                      00572 ;***
                      00573 ;entry:  _LED_Init      ;Function start
gpasm-1.4.0 #1106 (Oct  6 2014) obj\Release\l   7-17-2020  06:58:43         PAGE 12


LOC    OBJECT CODE    LINE  SOURCE TEXT
  VALUE

                      00574 ; 2 exit points
                      00575 ;has an exit
                      00576 ;functions called:
                      00577 ;   _GPIO_InitPortPin
                      00578 ;   _GPIO_InitPortPin
                      00579 ;   _GPIO_InitPortPin
                      00580 ;   _GPIO_InitPortPin
                      00581 ;   _GPIO_InitPortPin
                      00582 ;   _LED_SetState
                      00583 ;   _GPIO_InitPortPin
                      00584 ;   _GPIO_InitPortPin
                      00585 ;   _GPIO_InitPortPin
                      00586 ;   _GPIO_InitPortPin
                      00587 ;   _GPIO_InitPortPin
                      00588 ;   _LED_SetState
                      00589 ;5 compiler assigned registers:
                      00590 ;   r0x1011
                      00591 ;   STK00
                      00592 ;   r0x1012
                      00593 ;   r0x1013
                      00594 ;   STK01
                      00595 ;; Starting pCode block
0103                  00596 _LED_Init       ;Function start
                      00597 ; 2 exit points
                      00598 ;       .line   3; "led.c"      void LED_Init(tLED led, tLED_State initial_state)
0103   ???? ????      00599         BANKSEL r0x1011
0105   00??           00600         MOVWF   r0x1011
0106   08??           00601         MOVF    STK00,W
0107   00??           00602         MOVWF   r0x1012
                      00603 ;       .line   6; "led.c"      switch(led)
0108   08??           00604         MOVF    r0x1011,W
                      00605 ;;1     MOVWF   r0x1013
0109   1903           00606         BTFSC   STATUS,2
010A   2???           00607         GOTO    _00105_DS_
010B   08??           00608         MOVF    r0x1011,W
010C   3A01           00609         XORLW   0x01
010D   1903           00610         BTFSC   STATUS,2
010E   2???           00611         GOTO    _00106_DS_
010F   08??           00612         MOVF    r0x1011,W
0110   3A02           00613         XORLW   0x02
0111   1903           00614         BTFSC   STATUS,2
0112   2???           00615         GOTO    _00107_DS_
0113   08??           00616         MOVF    r0x1011,W
0114   3A03           00617         XORLW   0x03
0115   1903           00618         BTFSC   STATUS,2
0116   2???           00619         GOTO    _00108_DS_
0117   08??           00620         MOVF    r0x1011,W
0118   3A07           00621         XORLW   0x07
0119   1903           00622         BTFSC   STATUS,2
011A   2???           00623         GOTO    _00109_DS_
011B   2???           00624         GOTO    _00111_DS_
011C                  00625 _00105_DS_
                      00626 ;       .line   10; "led.c"     GPIO_InitPortPin(PORT_B, 0, GPIO_OUT);
gpasm-1.4.0 #1106 (Oct  6 2014) obj\Release\l   7-17-2020  06:58:43         PAGE 13


LOC    OBJECT CODE    LINE  SOURCE TEXT
  VALUE

011C   3000           00627         MOVLW   0x00
011D   00??           00628         MOVWF   STK01
011E   3000           00629         MOVLW   0x00
011F   00??           00630         MOVWF   STK00
0120   3001           00631         MOVLW   0x01
0121   ???? ????      00632         PAGESEL _GPIO_InitPortPin
0123   2???           00633         CALL    _GPIO_InitPortPin
0124   ???? ????      00634         PAGESEL $
                      00635 ;       .line   11; "led.c"     break;
0126   2???           00636         GOTO    _00111_DS_
0127                  00637 _00106_DS_
                      00638 ;       .line   14; "led.c"     GPIO_InitPortPin(PORT_B, 1, GPIO_OUT);
0127   3000           00639         MOVLW   0x00
0128   00??           00640         MOVWF   STK01
0129   3001           00641         MOVLW   0x01
012A   00??           00642         MOVWF   STK00
012B   3001           00643         MOVLW   0x01
012C   ???? ????      00644         PAGESEL _GPIO_InitPortPin
012E   2???           00645         CALL    _GPIO_InitPortPin
012F   ???? ????      00646         PAGESEL $
                      00647 ;       .line   15; "led.c"     break;
0131   2???           00648         GOTO    _00111_DS_
0132                  00649 _00107_DS_
                      00650 ;       .line   18; "led.c"     GPIO_InitPortPin(PORT_B, 2, GPIO_OUT);
0132   3000           00651         MOVLW   0x00
0133   00??           00652         MOVWF   STK01
0134   3002           00653         MOVLW   0x02
0135   00??           00654         MOVWF   STK00
0136   3001           00655         MOVLW   0x01
0137   ???? ????      00656         PAGESEL _GPIO_InitPortPin
0139   2???           00657         CALL    _GPIO_InitPortPin
013A   ???? ????      00658         PAGESEL $
                      00659 ;       .line   19; "led.c"     break;
013C   2???           00660         GOTO    _00111_DS_
013D                  00661 _00108_DS_
                      00662 ;       .line   22; "led.c"     GPIO_InitPortPin(PORT_B, 3, GPIO_OUT);
013D   3000           00663         MOVLW   0x00
013E   00??           00664         MOVWF   STK01
013F   3003           00665         MOVLW   0x03
0140   00??           00666         MOVWF   STK00
0141   3001           00667         MOVLW   0x01
0142   ???? ????      00668         PAGESEL _GPIO_InitPortPin
0144   2???           00669         CALL    _GPIO_InitPortPin
0145   ???? ????      00670         PAGESEL $
                      00671 ;       .line   23; "led.c"     break;
0147   2???           00672         GOTO    _00111_DS_
0148                  00673 _00109_DS_
                      00674 ;       .line   26; "led.c"     GPIO_InitPortPin(PORT_B, 7, GPIO_OUT);
0148   3000           00675         MOVLW   0x00
0149   00??           00676         MOVWF   STK01
014A   3007           00677         MOVLW   0x07
014B   00??           00678         MOVWF   STK00
014C   3001           00679         MOVLW   0x01
gpasm-1.4.0 #1106 (Oct  6 2014) obj\Release\l   7-17-2020  06:58:43         PAGE 14


LOC    OBJECT CODE    LINE  SOURCE TEXT
  VALUE

014D   ???? ????      00680         PAGESEL _GPIO_InitPortPin
014F   2???           00681         CALL    _GPIO_InitPortPin
0150   ???? ????      00682         PAGESEL $
0152                  00683 _00111_DS_
                      00684 ;       .line   34; "led.c"     LED_SetState(led, initial_state);
0152   ???? ????      00685         BANKSEL r0x1012
0154   08??           00686         MOVF    r0x1012,W
0155   00??           00687         MOVWF   STK00
0156   08??           00688         MOVF    r0x1011,W
0157   ???? ????      00689         PAGESEL _LED_SetState
0159   2???           00690         CALL    _LED_SetState
015A   ???? ????      00691         PAGESEL $
015C   0008           00692         RETURN  
                      00693 ; exit point of _LED_Init
                      00694 
                      00695 
                      00696 ;       code size estimation:
                      00697 ;         225+   62 =   287 instructions (  698 byte)
                      00698 
                      00699         end
gpasm-1.4.0 #1106 (Oct  6 2014) obj\Release\l   7-17-2020  06:58:43         PAGE 15


SYMBOL TABLE
  LABEL                             VALUE

ACKDT                             00000005
ACKEN                             00000004
ACKSTAT                           00000006
ADCON0                            0000001F
ADCON1                            0000009F
ADCS0                             00000006
ADCS1                             00000007
ADCS2                             00000006
ADDEN                             00000003
ADFM                              00000007
ADIE                              00000006
ADIF                              00000006
ADON                              00000000
ADRESH                            0000001E
ADRESL                            0000009E
BCLIE                             00000003
BCLIF                             00000003
BF                                00000000
BRGH                              00000002
C                                 00000000
C1INV                             00000004
C1OUT                             00000006
C2INV                             00000005
C2OUT                             00000007
CCP1CON                           00000017
CCP1IE                            00000002
CCP1IF                            00000002
CCP1M0                            00000000
CCP1M1                            00000001
CCP1M2                            00000002
CCP1M3                            00000003
CCP1X                             00000005
CCP1Y                             00000004
CCP2CON                           0000001D
CCP2IE                            00000000
CCP2IF                            00000000
CCP2M0                            00000000
CCP2M1                            00000001
CCP2M2                            00000002
CCP2M3                            00000003
CCP2X                             00000005
CCP2Y                             00000004
CCPR1                             00000015
CCPR1H                            00000016
CCPR1L                            00000015
CCPR2                             0000001B
CCPR2H                            0000001C
CCPR2L                            0000001B
CHS0                              00000003
CHS1                              00000004
CHS2                              00000005
CIS                               00000003
CKE                               00000006
gpasm-1.4.0 #1106 (Oct  6 2014) obj\Release\l   7-17-2020  06:58:43         PAGE 16


SYMBOL TABLE
  LABEL                             VALUE 

CKP                               00000004
CM0                               00000000
CM1                               00000001
CM2                               00000002
CMCON                             0000009C
CMIE                              00000006
CMIF                              00000006
CREN                              00000004
CSRC                              00000007
CVR0                              00000000
CVR1                              00000001
CVR2                              00000002
CVR3                              00000003
CVRCON                            0000009D
CVREN                             00000007
CVROE                             00000006
CVRR                              00000005
D                                 00000005
DATA_ADDRESS                      00000005
DC                                00000001
D_A                               00000005
D_NOT_A                           00000005
EEADR                             0000010D
EEADRH                            0000010F
EECON1                            0000018C
EECON2                            0000018D
EEDATA                            0000010C
EEDATH                            0000010E
EEIE                              00000004
EEIF                              00000004
EEPGD                             00000007
F                                 00000001
FERR                              00000002
FSR                               00000004
GCEN                              00000007
GIE                               00000007
GO                                00000002
GO_DONE                           00000002
GO_NOT_DONE                       00000002
I2C_DATA                          00000005
I2C_READ                          00000002
I2C_START                         00000003
I2C_STOP                          00000004
IBF                               00000007
IBOV                              00000005
INDF                              00000000
INTCON                            0000000B
INTE                              00000004
INTEDG                            00000006
INTF                              00000001
IRP                               00000007
NOT_A                             00000005
NOT_ADDRESS                       00000005
gpasm-1.4.0 #1106 (Oct  6 2014) obj\Release\l   7-17-2020  06:58:43         PAGE 17


SYMBOL TABLE
  LABEL                             VALUE 

NOT_BO                            00000000
NOT_BOR                           00000000
NOT_DONE                          00000002
NOT_PD                            00000003
NOT_POR                           00000001
NOT_RBPU                          00000007
NOT_RC8                           00000006
NOT_T1SYNC                        00000002
NOT_TO                            00000004
NOT_TX8                           00000006
NOT_W                             00000002
NOT_WRITE                         00000002
OBF                               00000006
OERR                              00000001
OPTION_REG                        00000081
P                                 00000004
PCFG0                             00000000
PCFG1                             00000001
PCFG2                             00000002
PCFG3                             00000003
PCL                               00000002
PCLATH                            0000000A
PCON                              0000008E
PEIE                              00000006
PEN                               00000002
PIE1                              0000008C
PIE2                              0000008D
PIR1                              0000000C
PIR2                              0000000D
PORTA                             00000005
PORTB                             00000006
PORTC                             00000007
PORTD                             00000008
PORTE                             00000009
PR2                               00000092
PS0                               00000000
PS1                               00000001
PS2                               00000002
PSA                               00000003
PSAVE                             00000000
PSPIE                             00000007
PSPIF                             00000007
PSPMODE                           00000004
R                                 00000002
RA0                               00000000
RA1                               00000001
RA2                               00000002
RA3                               00000003
RA4                               00000004
RA5                               00000005
RB0                               00000000
RB1                               00000001
RB2                               00000002
gpasm-1.4.0 #1106 (Oct  6 2014) obj\Release\l   7-17-2020  06:58:43         PAGE 18


SYMBOL TABLE
  LABEL                             VALUE 

RB3                               00000003
RB4                               00000004
RB5                               00000005
RB6                               00000006
RB7                               00000007
RBIE                              00000003
RBIF                              00000000
RC0                               00000000
RC1                               00000001
RC2                               00000002
RC3                               00000003
RC4                               00000004
RC5                               00000005
RC6                               00000006
RC7                               00000007
RC8_9                             00000006
RC9                               00000006
RCD8                              00000000
RCEN                              00000003
RCIE                              00000005
RCIF                              00000005
RCREG                             0000001A
RCSTA                             00000018
RD                                00000000
RD0                               00000000
RD1                               00000001
RD2                               00000002
RD3                               00000003
RD4                               00000004
RD5                               00000005
RD6                               00000006
RD7                               00000007
RE0                               00000000
RE1                               00000001
RE2                               00000002
READ_WRITE                        00000002
RP0                               00000005
RP1                               00000006
RSEN                              00000001
RX9                               00000006
RX9D                              00000000
R_NOT_W                           00000002
R_W                               00000002
S                                 00000003
SEN                               00000000
SMP                               00000007
SPBRG                             00000099
SPEN                              00000007
SREN                              00000005
SSAVE                             00000000
SSPADD                            00000093
SSPBUF                            00000013
SSPCON                            00000014
gpasm-1.4.0 #1106 (Oct  6 2014) obj\Release\l   7-17-2020  06:58:43         PAGE 19


SYMBOL TABLE
  LABEL                             VALUE 

SSPCON2                           00000091
SSPEN                             00000005
SSPIE                             00000003
SSPIF                             00000003
SSPM0                             00000000
SSPM1                             00000001
SSPM2                             00000002
SSPM3                             00000003
SSPOV                             00000006
SSPSTAT                           00000094
STATUS                            00000003
STK00                             00000000
STK01                             00000000
STK02                             00000000
STK03                             00000000
STK04                             00000000
STK05                             00000000
STK06                             00000000
STK07                             00000000
STK08                             00000000
STK09                             00000000
STK10                             00000000
STK11                             00000000
STK12                             00000000
SYNC                              00000004
T0CS                              00000005
T0IE                              00000005
T0IF                              00000002
T0SE                              00000004
T1CKPS0                           00000004
T1CKPS1                           00000005
T1CON                             00000010
T1INSYNC                          00000002
T1OSCEN                           00000003
T1SYNC                            00000002
T2CKPS0                           00000000
T2CKPS1                           00000001
T2CON                             00000012
TMR0                              00000001
TMR0IE                            00000005
TMR0IF                            00000002
TMR1                              0000000E
TMR1CS                            00000001
TMR1H                             0000000F
TMR1IE                            00000000
TMR1IF                            00000000
TMR1L                             0000000E
TMR1ON                            00000000
TMR2                              00000011
TMR2IE                            00000001
TMR2IF                            00000001
TMR2ON                            00000002
TOUTPS0                           00000003
gpasm-1.4.0 #1106 (Oct  6 2014) obj\Release\l   7-17-2020  06:58:43         PAGE 20


SYMBOL TABLE
  LABEL                             VALUE 

TOUTPS1                           00000004
TOUTPS2                           00000005
TOUTPS3                           00000006
TRISA                             00000085
TRISA0                            00000000
TRISA1                            00000001
TRISA2                            00000002
TRISA3                            00000003
TRISA4                            00000004
TRISA5                            00000005
TRISB                             00000086
TRISB0                            00000000
TRISB1                            00000001
TRISB2                            00000002
TRISB3                            00000003
TRISB4                            00000004
TRISB5                            00000005
TRISB6                            00000006
TRISB7                            00000007
TRISC                             00000087
TRISC0                            00000000
TRISC1                            00000001
TRISC2                            00000002
TRISC3                            00000003
TRISC4                            00000004
TRISC5                            00000005
TRISC6                            00000006
TRISC7                            00000007
TRISD                             00000088
TRISD0                            00000000
TRISD1                            00000001
TRISD2                            00000002
TRISD3                            00000003
TRISD4                            00000004
TRISD5                            00000005
TRISD6                            00000006
TRISD7                            00000007
TRISE                             00000089
TRISE0                            00000000
TRISE1                            00000001
TRISE2                            00000002
TRMT                              00000001
TX8_9                             00000006
TX9                               00000006
TX9D                              00000000
TXD8                              00000000
TXEN                              00000005
TXIE                              00000004
TXIF                              00000004
TXREG                             00000019
TXSTA                             00000098
UA                                00000001
W                                 00000000
gpasm-1.4.0 #1106 (Oct  6 2014) obj\Release\l   7-17-2020  06:58:43         PAGE 21


SYMBOL TABLE
  LABEL                             VALUE 

WCOL                              00000007
WR                                00000001
WREN                              00000002
WRERR                             00000003
WSAVE                             00000000
Z                                 00000002
_00105_DS_                        0000011C
_00106_DS_                        00000127
_00107_DS_                        00000132
_00108_DS_                        0000013D
_00109_DS_                        00000148
_00111_DS_                        00000152
_00138_DS_                        000000D7
_00139_DS_                        000000E0
_00141_DS_                        000000EE
_00142_DS_                        000000FA
_00145_DS_                        00000102
_00166_DS_                        00000087
_00167_DS_                        00000093
_00168_DS_                        0000009F
_00169_DS_                        000000AB
_00170_DS_                        000000B7
_00172_DS_                        000000C2
_00199_DS_                        0000002E
_00200_DS_                        0000003B
_00201_DS_                        00000048
_00202_DS_                        00000055
_00203_DS_                        00000062
_00206_DS_                        0000006E
_00233_DS_                        0000000E
_00235_DS_                        00000014
_ADCON0                           00000000
_ADCON0bits                       00000000
_ADCON1                           00000000
_ADCON1bits                       00000000
_ADC_GetResult                    00000000
_ADC_Init                         00000000
_ADC_Update                       00000000
_ADRESH                           00000000
_ADRESL                           00000000
_BODEN_OFF                        00003FBF
_BODEN_ON                         00003FFF
_BOREN_OFF                        00003FBF
_BOREN_ON                         00003FFF
_CCP1CON                          00000000
_CCP1CONbits                      00000000
_CCP2CON                          00000000
_CCP2CONbits                      00000000
_CCPR1                            00000000
_CCPR1H                           00000000
_CCPR1L                           00000000
_CCPR2                            00000000
_CCPR2H                           00000000
gpasm-1.4.0 #1106 (Oct  6 2014) obj\Release\l   7-17-2020  06:58:43         PAGE 22


SYMBOL TABLE
  LABEL                             VALUE 

_CCPR2L                           00000000
_CMCON                            00000000
_CMCONbits                        00000000
_CONFIG                           00002007
_CPD_OFF                          00003FFF
_CPD_ON                           00003EFF
_CP_ALL                           00001FFF
_CP_OFF                           00003FFF
_CP_ON                            00001FFF
_CVRCON                           00000000
_CVRCONbits                       00000000
_Cooler_GetState                  00000000
_Cooler_Init                      00000000
_Cooler_SetState                  00000000
_Cooler_update                    00000000
_Counters                         00000000
_DEBUG_OFF                        00003FFF
_DEBUG_ON                         000037FF
_DEVID1                           00002006
_EEADR                            00000000
_EEADRH                           00000000
_EECON1                           00000000
_EECON1bits                       00000000
_EECON2                           00000000
_EEDATA                           00000000
_EEDATH                           00000000
_FOSC_EXTRC                       00003FFF
_FOSC_HS                          00003FFE
_FOSC_LP                          00003FFC
_FOSC_XT                          00003FFD
_FSR                              00000000
_Flags                            00000000
_GPIO_GetPortPinState             00000000
_GPIO_InitPort                    00000000
_GPIO_InitPortPin                 00000000
_GPIO_SetPortPinState             00000000
_GPIO_SetPortState                00000000
_GPIO_Update                      00000000
_HS_OSC                           00003FFE
_Heater_GetState                  00000000
_Heater_Init                      00000000
_Heater_SetState                  00000000
_Heater_update                    00000000
_IDLOC0                           00002000
_IDLOC1                           00002001
_IDLOC2                           00002002
_IDLOC3                           00002003
_INDF                             00000000
_INTCON                           00000000
_INTCONbits                       00000000
_LED_GetState                     0000006F
_LED_Init                         00000103
_LED_SetState                     00000015
gpasm-1.4.0 #1106 (Oct  6 2014) obj\Release\l   7-17-2020  06:58:43         PAGE 23


SYMBOL TABLE
  LABEL                             VALUE 

_LED_Toggle                       00000000
_LED_Update                       000000C6
_LP_OSC                           00003FFC
_LVP_OFF                          00003F7F
_LVP_ON                           00003FFF
_OPTION_REG                       00000000
_OPTION_REGbits                   00000000
_PB_GetState                      00000000
_PB_Init                          00000000
_PB_Update                        00000000
_PCL                              00000000
_PCLATH                           00000000
_PCON                             00000000
_PCONbits                         00000000
_PIE1                             00000000
_PIE1bits                         00000000
_PIE2                             00000000
_PIE2bits                         00000000
_PIR1                             00000000
_PIR1bits                         00000000
_PIR2                             00000000
_PIR2bits                         00000000
_PORTA                            00000000
_PORTAbits                        00000000
_PORTB                            00000000
_PORTBbits                        00000000
_PORTC                            00000000
_PORTCbits                        00000000
_PORTD                            00000000
_PORTDbits                        00000000
_PORTE                            00000000
_PORTEbits                        00000000
_PR2                              00000000
_PWRTE_OFF                        00003FFF
_PWRTE_ON                         00003FF7
_RCREG                            00000000
_RCSTA                            00000000
_RCSTAbits                        00000000
_RC_OSC                           00003FFF
_Readings                         00000000
_SPBRG                            00000000
_SSD_GET_Symbol                   00000000
_SSD_GET_state                    00000000
_SSD_Init                         00000000
_SSD_SET_Symbol                   00000000
_SSD_SET_state                    00000000
_SSD_update                       00000000
_SSPADD                           00000000
_SSPBUF                           00000000
_SSPCON                           00000000
_SSPCON2                          00000000
_SSPCON2bits                      00000000
_SSPCONbits                       00000000
gpasm-1.4.0 #1106 (Oct  6 2014) obj\Release\l   7-17-2020  06:58:43         PAGE 24


SYMBOL TABLE
  LABEL                             VALUE 

_SSPSTAT                          00000000
_SSPSTATbits                      00000000
_STATUS                           00000000
_STATUSbits                       00000000
_SettingMode_Get_SSD_state        00000000
_SettingMode_OFF_mode             00000000
_SettingMode_update               00000000
_Start_conversion_Int             00000000
_T1CON                            00000000
_T1CONbits                        00000000
_T2CON                            00000000
_T2CONbits                        00000000
_TMR0                             00000000
_TMR0_Init                        00000000
_TMR0_Start                       00000000
_TMR0_Update                      00000000
_TMR1                             00000000
_TMR1H                            00000000
_TMR1L                            00000000
_TMR2                             00000000
_TRISA                            00000000
_TRISAbits                        00000000
_TRISB                            00000000
_TRISBbits                        00000000
_TRISC                            00000000
_TRISCbits                        00000000
_TRISD                            00000000
_TRISDbits                        00000000
_TRISE                            00000000
_TRISEbits                        00000000
_TXREG                            00000000
_TXSTA                            00000000
_TXSTAbits                        00000000
_Temprature_Init                  00000000
_Temprature_update                00000000
_UTIL_DelayMS                     00000000
_WDTE_OFF                         00003FFB
_WDTE_ON                          00003FFF
_WDT_OFF                          00003FFB
_WDT_ON                           00003FFF
_WRT_1FOURTH                      00003BFF
_WRT_256                          00003DFF
_WRT_HALF                         000039FF
_WRT_OFF                          00003FFF
_XT_OSC                           00003FFD
__16F877A                         00000001
__CODE_END                        00001FFF
__CODE_START                      00000000
__COMMON_RAM_END                  0000007F
__COMMON_RAM_START                00000070
__EEPROM_END                      000021FF
__EEPROM_START                    00002100
__VECTOR_INT                      00000004
gpasm-1.4.0 #1106 (Oct  6 2014) obj\Release\l   7-17-2020  06:58:43         PAGE 25


SYMBOL TABLE
  LABEL                             VALUE 

__VECTOR_RESET                    00000000
_code_led_0038                    00000038
_code_led_0045                    00000045
_code_led_0052                    00000052
_code_led_005F                    0000005F
_code_led_006C                    0000006C
_code_led_008D                    0000008D
_code_led_0099                    00000099
_code_led_00A5                    000000A5
_code_led_00B1                    000000B1
_code_led_00BD                    000000BD
_code_led_00DD                    000000DD
_code_led_0100                    00000100
_code_led_0124                    00000124
_code_led_012F                    0000012F
_code_led_013A                    0000013A
_code_led_0145                    00000145
_code_led_0150                    00000150
_code_led_015A                    0000015A
r0x100B                           00000003
r0x100C                           00000004
r0x100E                           00000005
r0x1010                           00000002
r0x1011                           00000000
r0x1012                           00000001

Errors   :     0
Warnings :     0 reported,     0 suppressed
Messages :     0 reported,     0 suppressed

