gpasm-1.4.0 #1106 (Oct  6 2014) obj\Release\l   7-19-2020  20:05:22         PAGE  1


LOC    OBJECT CODE    LINE  SOURCE TEXT
  VALUE

                      00001 ;--------------------------------------------------------
                      00002 ; File Created by SDCC : free open source ANSI-C Compiler
                      00003 ; Version 3.5.0 #9253 (Jun 20 2015) (MINGW32)
                      00004 ; This file was generated Sun Jul 19 20:05:22 2020
                      00005 ;--------------------------------------------------------
                      00006 ; PIC port for the 14-bit core
                      00007 ;--------------------------------------------------------
                      00008 ;       .file   "led.c"
                      00009         list    p=16f877a
                      00010         radix dec
                      00011         include "p16f877a.inc"
                      00001         LIST
                      00002 
                      00003 ;==========================================================================
                      00004 ; Build date : Aug 07 2014
                      00005 ;  MPASM PIC16F877A processor include
                      00006 ; 
                      00007 ;  (c) Copyright 1999-2014 Microchip Technology, All rights reserved
                      00008 ;==========================================================================
                      00009 
                      00567         LIST
                      00012 ;--------------------------------------------------------
                      00013 ; external declarations
                      00014 ;--------------------------------------------------------
  0000                00015         extern  _GPIO_InitPortPin
  0000                00016         extern  _GPIO_InitPort
  0000                00017         extern  _GPIO_Update
  0000                00018         extern  _GPIO_SetPortPinState
  0000                00019         extern  _GPIO_SetPortState
  0000                00020         extern  _GPIO_GetPortPinState
  0000                00021         extern  _PB_Init
  0000                00022         extern  _PB_Update
  0000                00023         extern  _PB_GetState
  0000                00024         extern  _ADC_Init
  0000                00025         extern  _ADC_Update
  0000                00026         extern  _ADC_GetResult
  0000                00027         extern  _Start_conversion_Int
  0000                00028         extern  _Temprature_Init
  0000                00029         extern  _Temprature_update
  0000                00030         extern  _Heater_Init
  0000                00031         extern  _Heater_update
  0000                00032         extern  _Heater_GetState
  0000                00033         extern  _Cooler_Init
  0000                00034         extern  _Cooler_SetState
  0000                00035         extern  _Cooler_GetState
  0000                00036         extern  _Cooler_update
  0000                00037         extern  _I2C_Init
  0000                00038         extern  _I2C_Hold
  0000                00039         extern  _I2C_Begin
  0000                00040         extern  _I2C_End
  0000                00041         extern  _I2C_Write
  0000                00042         extern  _I2C_Read
  0000                00043         extern  _e2pext_r
gpasm-1.4.0 #1106 (Oct  6 2014) obj\Release\l   7-19-2020  20:05:22         PAGE  2


LOC    OBJECT CODE    LINE  SOURCE TEXT
  VALUE

  0000                00044         extern  _e2pext_w
  0000                00045         extern  _e2pex_update
  0000                00046         extern  _TMR0_Init
  0000                00047         extern  _TMR0_Update
  0000                00048         extern  _TMR0_Start
  0000                00049         extern  _UTIL_DelayMS
  0000                00050         extern  _SSD_Init
  0000                00051         extern  _SSD_SET_Symbol
  0000                00052         extern  _SSD_SET_state
  0000                00053         extern  _SSD_GET_state
  0000                00054         extern  _SSD_GET_Symbol
  0000                00055         extern  _SSD_update
  0000                00056         extern  _SettingMode_update
  0000                00057         extern  _STATUSbits
  0000                00058         extern  _PORTAbits
  0000                00059         extern  _PORTBbits
  0000                00060         extern  _PORTCbits
  0000                00061         extern  _PORTDbits
  0000                00062         extern  _PORTEbits
  0000                00063         extern  _INTCONbits
  0000                00064         extern  _PIR1bits
  0000                00065         extern  _PIR2bits
  0000                00066         extern  _T1CONbits
  0000                00067         extern  _T2CONbits
  0000                00068         extern  _SSPCONbits
  0000                00069         extern  _CCP1CONbits
  0000                00070         extern  _RCSTAbits
  0000                00071         extern  _CCP2CONbits
  0000                00072         extern  _ADCON0bits
  0000                00073         extern  _OPTION_REGbits
  0000                00074         extern  _TRISAbits
  0000                00075         extern  _TRISBbits
  0000                00076         extern  _TRISCbits
  0000                00077         extern  _TRISDbits
  0000                00078         extern  _TRISEbits
  0000                00079         extern  _PIE1bits
  0000                00080         extern  _PIE2bits
  0000                00081         extern  _PCONbits
  0000                00082         extern  _SSPCON2bits
  0000                00083         extern  _SSPSTATbits
  0000                00084         extern  _TXSTAbits
  0000                00085         extern  _CMCONbits
  0000                00086         extern  _CVRCONbits
  0000                00087         extern  _ADCON1bits
  0000                00088         extern  _EECON1bits
  0000                00089         extern  _Counters
  0000                00090         extern  _Flags
  0000                00091         extern  _Readings
  0000                00092         extern  _INDF
  0000                00093         extern  _TMR0
  0000                00094         extern  _PCL
  0000                00095         extern  _STATUS
  0000                00096         extern  _FSR
gpasm-1.4.0 #1106 (Oct  6 2014) obj\Release\l   7-19-2020  20:05:22         PAGE  3


LOC    OBJECT CODE    LINE  SOURCE TEXT
  VALUE

  0000                00097         extern  _PORTA
  0000                00098         extern  _PORTB
  0000                00099         extern  _PORTC
  0000                00100         extern  _PORTD
  0000                00101         extern  _PORTE
  0000                00102         extern  _PCLATH
  0000                00103         extern  _INTCON
  0000                00104         extern  _PIR1
  0000                00105         extern  _PIR2
  0000                00106         extern  _TMR1
  0000                00107         extern  _TMR1L
  0000                00108         extern  _TMR1H
  0000                00109         extern  _T1CON
  0000                00110         extern  _TMR2
  0000                00111         extern  _T2CON
  0000                00112         extern  _SSPBUF
  0000                00113         extern  _SSPCON
  0000                00114         extern  _CCPR1
  0000                00115         extern  _CCPR1L
  0000                00116         extern  _CCPR1H
  0000                00117         extern  _CCP1CON
  0000                00118         extern  _RCSTA
  0000                00119         extern  _TXREG
  0000                00120         extern  _RCREG
  0000                00121         extern  _CCPR2
  0000                00122         extern  _CCPR2L
  0000                00123         extern  _CCPR2H
  0000                00124         extern  _CCP2CON
  0000                00125         extern  _ADRESH
  0000                00126         extern  _ADCON0
  0000                00127         extern  _OPTION_REG
  0000                00128         extern  _TRISA
  0000                00129         extern  _TRISB
  0000                00130         extern  _TRISC
  0000                00131         extern  _TRISD
  0000                00132         extern  _TRISE
  0000                00133         extern  _PIE1
  0000                00134         extern  _PIE2
  0000                00135         extern  _PCON
  0000                00136         extern  _SSPCON2
  0000                00137         extern  _PR2
  0000                00138         extern  _SSPADD
  0000                00139         extern  _SSPSTAT
  0000                00140         extern  _TXSTA
  0000                00141         extern  _SPBRG
  0000                00142         extern  _CMCON
  0000                00143         extern  _CVRCON
  0000                00144         extern  _ADRESL
  0000                00145         extern  _ADCON1
  0000                00146         extern  _EEDATA
  0000                00147         extern  _EEADR
  0000                00148         extern  _EEDATH
  0000                00149         extern  _EEADRH
gpasm-1.4.0 #1106 (Oct  6 2014) obj\Release\l   7-19-2020  20:05:22         PAGE  4


LOC    OBJECT CODE    LINE  SOURCE TEXT
  VALUE

  0000                00150         extern  _EECON1
  0000                00151         extern  _EECON2
                      00152 
  0000                00153         extern PSAVE
  0000                00154         extern SSAVE
  0000                00155         extern WSAVE
  0000                00156         extern STK12
  0000                00157         extern STK11
  0000                00158         extern STK10
  0000                00159         extern STK09
  0000                00160         extern STK08
  0000                00161         extern STK07
  0000                00162         extern STK06
  0000                00163         extern STK05
  0000                00164         extern STK04
  0000                00165         extern STK03
  0000                00166         extern STK02
  0000                00167         extern STK01
  0000                00168         extern STK00
                      00169 ;--------------------------------------------------------
                      00170 ; global declarations
                      00171 ;--------------------------------------------------------
  0000                00172         global  _LED_GetState
  0000                00173         global  _LED_Update
  0000                00174         global  _LED_Init
                      00175 
                      00176 ;--------------------------------------------------------
                      00177 ; global definitions
                      00178 ;--------------------------------------------------------
                      00179 ;--------------------------------------------------------
                      00180 ; absolute symbol definitions
                      00181 ;--------------------------------------------------------
                      00182 ;--------------------------------------------------------
                      00183 ; compiler-defined variables
                      00184 ;--------------------------------------------------------
                      00185 UDL_led_0       udata
0000                  00186 r0x1015 res     1
0001                  00187 r0x1016 res     1
0002                  00188 r0x1014 res     1
0003                  00189 r0x1010 res     1
0004                  00190 r0x1011 res     1
0005                  00191 r0x1012 res     1
                      00192 ;--------------------------------------------------------
                      00193 ; initialized data
                      00194 ;--------------------------------------------------------
                      00195 ;--------------------------------------------------------
                      00196 ; overlayable items in internal ram 
                      00197 ;--------------------------------------------------------
                      00198 ;       udata_ovr
                      00199 ;--------------------------------------------------------
                      00200 ; code
                      00201 ;--------------------------------------------------------
                      00202 code_led        code
gpasm-1.4.0 #1106 (Oct  6 2014) obj\Release\l   7-19-2020  20:05:22         PAGE  5


LOC    OBJECT CODE    LINE  SOURCE TEXT
  VALUE

                      00203 ;***
                      00204 ;  pBlock Stats: dbName = C
                      00205 ;***
                      00206 ;entry:  _LED_Toggle    ;Function start
                      00207 ; 2 exit points
                      00208 ;has an exit
                      00209 ;functions called:
                      00210 ;   _LED_GetState
                      00211 ;   _LED_SetState
                      00212 ;   _LED_SetState
                      00213 ;   _LED_GetState
                      00214 ;   _LED_SetState
                      00215 ;   _LED_SetState
                      00216 ;3 compiler assigned registers:
                      00217 ;   r0x1012
                      00218 ;   r0x1013
                      00219 ;   STK00
                      00220 ;; Starting pCode block
0000                  00221 _LED_Toggle     ;Function start
                      00222 ; 2 exit points
                      00223 ;       .line   117; "led.c"    static void LED_Toggle(tLED led)
0000   ???? ????      00224         BANKSEL r0x1012
0002   00??           00225         MOVWF   r0x1012
                      00226 ;       .line   119; "led.c"    if (LED_GetState(led) == LED_ON)
0003   2???           00227         CALL    _LED_GetState
                      00228 ;;1     MOVWF   r0x1013
0004   3A01           00229         XORLW   0x01
0005   1D03           00230         BTFSS   STATUS,2
0006   2???           00231         GOTO    _00226_DS_
                      00232 ;       .line   121; "led.c"    LED_SetState(led, LED_OFF);
0007   3000           00233         MOVLW   0x00
0008   00??           00234         MOVWF   STK00
0009   ???? ????      00235         BANKSEL r0x1012
000B   08??           00236         MOVF    r0x1012,W
000C   2???           00237         CALL    _LED_SetState
000D   2???           00238         GOTO    _00228_DS_
000E                  00239 _00226_DS_
                      00240 ;       .line   125; "led.c"    LED_SetState(led, LED_ON);
000E   3001           00241         MOVLW   0x01
000F   00??           00242         MOVWF   STK00
0010   ???? ????      00243         BANKSEL r0x1012
0012   08??           00244         MOVF    r0x1012,W
0013   2???           00245         CALL    _LED_SetState
0014                  00246 _00228_DS_
0014   0008           00247         RETURN  
                      00248 ; exit point of _LED_Toggle
                      00249 
                      00250 ;***
                      00251 ;  pBlock Stats: dbName = C
                      00252 ;***
                      00253 ;entry:  _LED_SetState  ;Function start
                      00254 ; 2 exit points
                      00255 ;has an exit
gpasm-1.4.0 #1106 (Oct  6 2014) obj\Release\l   7-19-2020  20:05:22         PAGE  6


LOC    OBJECT CODE    LINE  SOURCE TEXT
  VALUE

                      00256 ;functions called:
                      00257 ;   _GPIO_SetPortPinState
                      00258 ;   _GPIO_SetPortPinState
                      00259 ;   _GPIO_SetPortPinState
                      00260 ;   _GPIO_SetPortPinState
                      00261 ;   _GPIO_SetPortPinState
                      00262 ;   _GPIO_SetPortPinState
                      00263 ;   _GPIO_SetPortPinState
                      00264 ;   _GPIO_SetPortPinState
                      00265 ;   _GPIO_SetPortPinState
                      00266 ;   _GPIO_SetPortPinState
                      00267 ;4 compiler assigned registers:
                      00268 ;   r0x1010
                      00269 ;   STK00
                      00270 ;   r0x1011
                      00271 ;   STK01
                      00272 ;; Starting pCode block
0015                  00273 _LED_SetState   ;Function start
                      00274 ; 2 exit points
                      00275 ;       .line   91; "led.c"     static void LED_SetState(tLED led, tLED_State state)
0015   ???? ????      00276         BANKSEL r0x1010
0017   00??           00277         MOVWF   r0x1010
0018   08??           00278         MOVF    STK00,W
0019   00??           00279         MOVWF   r0x1011
                      00280 ;       .line   93; "led.c"     switch(led)
001A   08??           00281         MOVF    r0x1010,W
001B   3A01           00282         XORLW   0x01
001C   1903           00283         BTFSC   STATUS,2
001D   2???           00284         GOTO    _00192_DS_
001E   08??           00285         MOVF    r0x1010,W
001F   3A02           00286         XORLW   0x02
0020   1903           00287         BTFSC   STATUS,2
0021   2???           00288         GOTO    _00193_DS_
0022   08??           00289         MOVF    r0x1010,W
0023   3A03           00290         XORLW   0x03
0024   1903           00291         BTFSC   STATUS,2
0025   2???           00292         GOTO    _00194_DS_
0026   08??           00293         MOVF    r0x1010,W
0027   3A04           00294         XORLW   0x04
0028   1903           00295         BTFSC   STATUS,2
0029   2???           00296         GOTO    _00195_DS_
002A   08??           00297         MOVF    r0x1010,W
002B   3A07           00298         XORLW   0x07
002C   1903           00299         BTFSC   STATUS,2
002D   2???           00300         GOTO    _00196_DS_
002E   2???           00301         GOTO    _00199_DS_
002F                  00302 _00192_DS_
                      00303 ;       .line   96; "led.c"     GPIO_SetPortPinState(PORT_B, 0, state);
002F   ???? ????      00304         BANKSEL r0x1011
0031   08??           00305         MOVF    r0x1011,W
0032   00??           00306         MOVWF   STK01
0033   3000           00307         MOVLW   0x00
0034   00??           00308         MOVWF   STK00
gpasm-1.4.0 #1106 (Oct  6 2014) obj\Release\l   7-19-2020  20:05:22         PAGE  7


LOC    OBJECT CODE    LINE  SOURCE TEXT
  VALUE

0035   3001           00309         MOVLW   0x01
0036   ???? ????      00310         PAGESEL _GPIO_SetPortPinState
0038   2???           00311         CALL    _GPIO_SetPortPinState
0039   ???? ????      00312         PAGESEL $
                      00313 ;       .line   97; "led.c"     break;
003B   2???           00314         GOTO    _00199_DS_
003C                  00315 _00193_DS_
                      00316 ;       .line   99; "led.c"     GPIO_SetPortPinState(PORT_B, 1, state);
003C   ???? ????      00317         BANKSEL r0x1011
003E   08??           00318         MOVF    r0x1011,W
003F   00??           00319         MOVWF   STK01
0040   3001           00320         MOVLW   0x01
0041   00??           00321         MOVWF   STK00
0042   3001           00322         MOVLW   0x01
0043   ???? ????      00323         PAGESEL _GPIO_SetPortPinState
0045   2???           00324         CALL    _GPIO_SetPortPinState
0046   ???? ????      00325         PAGESEL $
                      00326 ;       .line   100; "led.c"    break;
0048   2???           00327         GOTO    _00199_DS_
0049                  00328 _00194_DS_
                      00329 ;       .line   102; "led.c"    GPIO_SetPortPinState(PORT_B, 2, state);
0049   ???? ????      00330         BANKSEL r0x1011
004B   08??           00331         MOVF    r0x1011,W
004C   00??           00332         MOVWF   STK01
004D   3002           00333         MOVLW   0x02
004E   00??           00334         MOVWF   STK00
004F   3001           00335         MOVLW   0x01
0050   ???? ????      00336         PAGESEL _GPIO_SetPortPinState
0052   2???           00337         CALL    _GPIO_SetPortPinState
0053   ???? ????      00338         PAGESEL $
                      00339 ;       .line   103; "led.c"    break;
0055   2???           00340         GOTO    _00199_DS_
0056                  00341 _00195_DS_
                      00342 ;       .line   105; "led.c"    GPIO_SetPortPinState(PORT_B, 3, state);
0056   ???? ????      00343         BANKSEL r0x1011
0058   08??           00344         MOVF    r0x1011,W
0059   00??           00345         MOVWF   STK01
005A   3003           00346         MOVLW   0x03
005B   00??           00347         MOVWF   STK00
005C   3001           00348         MOVLW   0x01
005D   ???? ????      00349         PAGESEL _GPIO_SetPortPinState
005F   2???           00350         CALL    _GPIO_SetPortPinState
0060   ???? ????      00351         PAGESEL $
                      00352 ;       .line   106; "led.c"    break;
0062   2???           00353         GOTO    _00199_DS_
0063                  00354 _00196_DS_
                      00355 ;       .line   108; "led.c"    GPIO_SetPortPinState(PORT_B, 7, state);
0063   ???? ????      00356         BANKSEL r0x1011
0065   08??           00357         MOVF    r0x1011,W
0066   00??           00358         MOVWF   STK01
0067   3007           00359         MOVLW   0x07
0068   00??           00360         MOVWF   STK00
0069   3001           00361         MOVLW   0x01
gpasm-1.4.0 #1106 (Oct  6 2014) obj\Release\l   7-19-2020  20:05:22         PAGE  8


LOC    OBJECT CODE    LINE  SOURCE TEXT
  VALUE

006A   ???? ????      00362         PAGESEL _GPIO_SetPortPinState
006C   2???           00363         CALL    _GPIO_SetPortPinState
006D   ???? ????      00364         PAGESEL $
006F                  00365 _00199_DS_
                      00366 ;       .line   113; "led.c"    }
006F   0008           00367         RETURN  
                      00368 ; exit point of _LED_SetState
                      00369 
                      00370 ;***
                      00371 ;  pBlock Stats: dbName = C
                      00372 ;***
                      00373 ;entry:  _LED_GetState  ;Function start
                      00374 ; 2 exit points
                      00375 ;has an exit
                      00376 ;functions called:
                      00377 ;   _GPIO_GetPortPinState
                      00378 ;   _GPIO_GetPortPinState
                      00379 ;   _GPIO_GetPortPinState
                      00380 ;   _GPIO_GetPortPinState
                      00381 ;   _GPIO_GetPortPinState
                      00382 ;   _GPIO_GetPortPinState
                      00383 ;   _GPIO_GetPortPinState
                      00384 ;   _GPIO_GetPortPinState
                      00385 ;   _GPIO_GetPortPinState
                      00386 ;   _GPIO_GetPortPinState
                      00387 ;3 compiler assigned registers:
                      00388 ;   r0x1010
                      00389 ;   r0x1011
                      00390 ;   STK00
                      00391 ;; Starting pCode block
0070                  00392 _LED_GetState   ;Function start
                      00393 ; 2 exit points
                      00394 ;       .line   62; "led.c"     tLED_State LED_GetState(tLED led)
0070   ???? ????      00395         BANKSEL r0x1010
0072   00??           00396         MOVWF   r0x1010
                      00397 ;       .line   64; "led.c"     tLED_State ret = LED_OFF;
0073   01??           00398         CLRF    r0x1011
                      00399 ;       .line   66; "led.c"     switch(led)
0074   08??           00400         MOVF    r0x1010,W
0075   3A01           00401         XORLW   0x01
0076   1903           00402         BTFSC   STATUS,2
0077   2???           00403         GOTO    _00159_DS_
0078   08??           00404         MOVF    r0x1010,W
0079   3A02           00405         XORLW   0x02
007A   1903           00406         BTFSC   STATUS,2
007B   2???           00407         GOTO    _00160_DS_
007C   08??           00408         MOVF    r0x1010,W
007D   3A03           00409         XORLW   0x03
007E   1903           00410         BTFSC   STATUS,2
007F   2???           00411         GOTO    _00161_DS_
0080   08??           00412         MOVF    r0x1010,W
0081   3A04           00413         XORLW   0x04
0082   1903           00414         BTFSC   STATUS,2
gpasm-1.4.0 #1106 (Oct  6 2014) obj\Release\l   7-19-2020  20:05:22         PAGE  9


LOC    OBJECT CODE    LINE  SOURCE TEXT
  VALUE

0083   2???           00415         GOTO    _00162_DS_
0084   08??           00416         MOVF    r0x1010,W
0085   3A07           00417         XORLW   0x07
0086   1903           00418         BTFSC   STATUS,2
0087   2???           00419         GOTO    _00163_DS_
0088   2???           00420         GOTO    _00165_DS_
0089                  00421 _00159_DS_
                      00422 ;       .line   69; "led.c"     ret = GPIO_GetPortPinState(PORT_B, 0);
0089   3000           00423         MOVLW   0x00
008A   00??           00424         MOVWF   STK00
008B   3001           00425         MOVLW   0x01
008C   ???? ????      00426         PAGESEL _GPIO_GetPortPinState
008E   2???           00427         CALL    _GPIO_GetPortPinState
008F   ???? ????      00428         PAGESEL $
0091   ???? ????      00429         BANKSEL r0x1011
0093   00??           00430         MOVWF   r0x1011
                      00431 ;       .line   70; "led.c"     break;
0094   2???           00432         GOTO    _00165_DS_
0095                  00433 _00160_DS_
                      00434 ;       .line   72; "led.c"     ret = GPIO_GetPortPinState(PORT_B, 1);
0095   3001           00435         MOVLW   0x01
0096   00??           00436         MOVWF   STK00
0097   3001           00437         MOVLW   0x01
0098   ???? ????      00438         PAGESEL _GPIO_GetPortPinState
009A   2???           00439         CALL    _GPIO_GetPortPinState
009B   ???? ????      00440         PAGESEL $
009D   ???? ????      00441         BANKSEL r0x1011
009F   00??           00442         MOVWF   r0x1011
                      00443 ;       .line   73; "led.c"     break;
00A0   2???           00444         GOTO    _00165_DS_
00A1                  00445 _00161_DS_
                      00446 ;       .line   75; "led.c"     ret = GPIO_GetPortPinState(PORT_B, 2);
00A1   3002           00447         MOVLW   0x02
00A2   00??           00448         MOVWF   STK00
00A3   3001           00449         MOVLW   0x01
00A4   ???? ????      00450         PAGESEL _GPIO_GetPortPinState
00A6   2???           00451         CALL    _GPIO_GetPortPinState
00A7   ???? ????      00452         PAGESEL $
00A9   ???? ????      00453         BANKSEL r0x1011
00AB   00??           00454         MOVWF   r0x1011
                      00455 ;       .line   76; "led.c"     break;
00AC   2???           00456         GOTO    _00165_DS_
00AD                  00457 _00162_DS_
                      00458 ;       .line   78; "led.c"     ret = GPIO_GetPortPinState(PORT_B, 3);
00AD   3003           00459         MOVLW   0x03
00AE   00??           00460         MOVWF   STK00
00AF   3001           00461         MOVLW   0x01
00B0   ???? ????      00462         PAGESEL _GPIO_GetPortPinState
00B2   2???           00463         CALL    _GPIO_GetPortPinState
00B3   ???? ????      00464         PAGESEL $
00B5   ???? ????      00465         BANKSEL r0x1011
00B7   00??           00466         MOVWF   r0x1011
                      00467 ;       .line   79; "led.c"     break;
gpasm-1.4.0 #1106 (Oct  6 2014) obj\Release\l   7-19-2020  20:05:22         PAGE 10


LOC    OBJECT CODE    LINE  SOURCE TEXT
  VALUE

00B8   2???           00468         GOTO    _00165_DS_
00B9                  00469 _00163_DS_
                      00470 ;       .line   81; "led.c"     ret = GPIO_GetPortPinState(PORT_B, 7);
00B9   3007           00471         MOVLW   0x07
00BA   00??           00472         MOVWF   STK00
00BB   3001           00473         MOVLW   0x01
00BC   ???? ????      00474         PAGESEL _GPIO_GetPortPinState
00BE   2???           00475         CALL    _GPIO_GetPortPinState
00BF   ???? ????      00476         PAGESEL $
00C1   ???? ????      00477         BANKSEL r0x1011
00C3   00??           00478         MOVWF   r0x1011
00C4                  00479 _00165_DS_
                      00480 ;       .line   88; "led.c"     return ret;
00C4   ???? ????      00481         BANKSEL r0x1011
00C6   08??           00482         MOVF    r0x1011,W
00C7   0008           00483         RETURN  
                      00484 ; exit point of _LED_GetState
                      00485 
                      00486 ;***
                      00487 ;  pBlock Stats: dbName = C
                      00488 ;***
                      00489 ;entry:  _LED_Update    ;Function start
                      00490 ; 2 exit points
                      00491 ;has an exit
                      00492 ;functions called:
                      00493 ;   _LED_SetState
                      00494 ;   _LED_Toggle
                      00495 ;   _LED_SetState
                      00496 ;   _LED_SetState
                      00497 ;   _LED_Toggle
                      00498 ;   _LED_SetState
                      00499 ;2 compiler assigned registers:
                      00500 ;   r0x1014
                      00501 ;   STK00
                      00502 ;; Starting pCode block
00C8                  00503 _LED_Update     ;Function start
                      00504 ; 2 exit points
                      00505 ;       .line   39; "led.c"     switch(Flags.Toggle_led)
00C8   ???? ????      00506         BANKSEL _Flags
00CA   08??           00507         MOVF    (_Flags + 1),W
00CB   ???? ????      00508         BANKSEL r0x1014
00CD   00??           00509         MOVWF   r0x1014
                      00510 ;;swapping arguments (AOP_TYPEs 1/2)
                      00511 ;;unsigned compare: left >= lit(0x3=3), size=1
00CE   3003           00512         MOVLW   0x03
00CF   02??           00513         SUBWF   r0x1014,W
00D0   1803           00514         BTFSC   STATUS,0
00D1   2???           00515         GOTO    _00145_DS_
                      00516 ;;genSkipc:3247: created from rifx:027A5DF4
00D2   30??           00517         MOVLW   HIGH(_00154_DS_)
00D3   1283 1303      00518         BANKSEL PCLATH
00D5   008A           00519         MOVWF   PCLATH
00D6   30??           00520         MOVLW   _00154_DS_
gpasm-1.4.0 #1106 (Oct  6 2014) obj\Release\l   7-19-2020  20:05:22         PAGE 11


LOC    OBJECT CODE    LINE  SOURCE TEXT
  VALUE

00D7   ???? ????      00521         BANKSEL r0x1014
00D9   07??           00522         ADDWF   r0x1014,W
00DA   1C03           00523         BTFSS   STATUS,0
00DB   2???           00524         GOTO    _00001_DS_
00DC   1283 1303      00525         BANKSEL PCLATH
00DE   0A8A           00526         INCF    PCLATH,F
00DF                  00527 _00001_DS_
00DF   0082           00528         MOVWF   PCL
00E0                  00529 _00154_DS_
00E0   2???           00530         GOTO    _00138_DS_
00E1   2???           00531         GOTO    _00139_DS_
00E2   2???           00532         GOTO    _00142_DS_
00E3                  00533 _00138_DS_
                      00534 ;       .line   42; "led.c"     LED_SetState(LED_7,LED_ON);
00E3   3001           00535         MOVLW   0x01
00E4   00??           00536         MOVWF   STK00
00E5   3007           00537         MOVLW   0x07
00E6   2???           00538         CALL    _LED_SetState
                      00539 ;       .line   43; "led.c"     break;
00E7   2???           00540         GOTO    _00145_DS_
00E8                  00541 _00139_DS_
                      00542 ;       .line   45; "led.c"     if(Counters.Led_counter == 50)
00E8   ???? ????      00543         BANKSEL _Counters
00EA   08??           00544         MOVF    (_Counters + 4),W
00EB   ???? ????      00545         BANKSEL r0x1014
00ED   00??           00546         MOVWF   r0x1014
00EE   3A32           00547         XORLW   0x32
00EF   1D03           00548         BTFSS   STATUS,2
00F0   2???           00549         GOTO    _00141_DS_
                      00550 ;       .line   47; "led.c"     LED_Toggle(LED_7);
00F1   3007           00551         MOVLW   0x07
00F2   2???           00552         CALL    _LED_Toggle
                      00553 ;;/home/sdcc-builder/build/sdcc-build/orig/sdcc/src/pic14/gen.c:6461: size=0, offset=0, AOP_TYPE(res)=8
                      00554 ;       .line   48; "led.c"     Counters.Led_counter = 0 ;
00F3   ???? ????      00555         BANKSEL _Counters
00F5   01??           00556         CLRF    (_Counters + 4)
                      00557 ;       .line   49; "led.c"     RC7 = 1;
00F6   ???? ????      00558         BANKSEL _PORTCbits
00F8   17??           00559         BSF     _PORTCbits,7
00F9                  00560 _00141_DS_
                      00561 ;       .line   51; "led.c"     Counters.Led_counter++ ;
00F9   ???? ????      00562         BANKSEL _Counters
00FB   08??           00563         MOVF    (_Counters + 4),W
00FC   ???? ????      00564         BANKSEL r0x1014
00FE   00??           00565         MOVWF   r0x1014
00FF   0A??           00566         INCF    r0x1014,F
                      00567 ;;/home/sdcc-builder/build/sdcc-build/orig/sdcc/src/pic14/gen.c:6461: size=0, offset=0, AOP_TYPE(res)=8
0100   08??           00568         MOVF    r0x1014,W
0101   ???? ????      00569         BANKSEL _Counters
0103   00??           00570         MOVWF   (_Counters + 4)
                      00571 ;       .line   52; "led.c"     break;
0104   2???           00572         GOTO    _00145_DS_
0105                  00573 _00142_DS_
gpasm-1.4.0 #1106 (Oct  6 2014) obj\Release\l   7-19-2020  20:05:22         PAGE 12


LOC    OBJECT CODE    LINE  SOURCE TEXT
  VALUE

                      00574 ;       .line   54; "led.c"     LED_SetState(LED_7,LED_OFF);
0105   3000           00575         MOVLW   0x00
0106   00??           00576         MOVWF   STK00
0107   3007           00577         MOVLW   0x07
0108   2???           00578         CALL    _LED_SetState
0109                  00579 _00145_DS_
                      00580 ;       .line   58; "led.c"     }
0109   0008           00581         RETURN  
                      00582 ; exit point of _LED_Update
                      00583 
                      00584 ;***
                      00585 ;  pBlock Stats: dbName = C
                      00586 ;***
                      00587 ;entry:  _LED_Init      ;Function start
                      00588 ; 2 exit points
                      00589 ;has an exit
                      00590 ;functions called:
                      00591 ;   _GPIO_InitPortPin
                      00592 ;   _GPIO_InitPortPin
                      00593 ;   _GPIO_InitPortPin
                      00594 ;   _GPIO_InitPortPin
                      00595 ;   _GPIO_InitPortPin
                      00596 ;   _LED_SetState
                      00597 ;   _GPIO_InitPortPin
                      00598 ;   _GPIO_InitPortPin
                      00599 ;   _GPIO_InitPortPin
                      00600 ;   _GPIO_InitPortPin
                      00601 ;   _GPIO_InitPortPin
                      00602 ;   _LED_SetState
                      00603 ;4 compiler assigned registers:
                      00604 ;   r0x1015
                      00605 ;   STK00
                      00606 ;   r0x1016
                      00607 ;   STK01
                      00608 ;; Starting pCode block
010A                  00609 _LED_Init       ;Function start
                      00610 ; 2 exit points
                      00611 ;       .line   3; "led.c"      void LED_Init(tLED led, tLED_State initial_state)
010A   ???? ????      00612         BANKSEL r0x1015
010C   00??           00613         MOVWF   r0x1015
010D   08??           00614         MOVF    STK00,W
010E   00??           00615         MOVWF   r0x1016
                      00616 ;       .line   6; "led.c"      switch(led)
010F   08??           00617         MOVF    r0x1015,W
0110   3A01           00618         XORLW   0x01
0111   1903           00619         BTFSC   STATUS,2
0112   2???           00620         GOTO    _00105_DS_
0113   08??           00621         MOVF    r0x1015,W
0114   3A02           00622         XORLW   0x02
0115   1903           00623         BTFSC   STATUS,2
0116   2???           00624         GOTO    _00106_DS_
0117   08??           00625         MOVF    r0x1015,W
0118   3A03           00626         XORLW   0x03
gpasm-1.4.0 #1106 (Oct  6 2014) obj\Release\l   7-19-2020  20:05:22         PAGE 13


LOC    OBJECT CODE    LINE  SOURCE TEXT
  VALUE

0119   1903           00627         BTFSC   STATUS,2
011A   2???           00628         GOTO    _00107_DS_
011B   08??           00629         MOVF    r0x1015,W
011C   3A04           00630         XORLW   0x04
011D   1903           00631         BTFSC   STATUS,2
011E   2???           00632         GOTO    _00108_DS_
011F   08??           00633         MOVF    r0x1015,W
0120   3A07           00634         XORLW   0x07
0121   1903           00635         BTFSC   STATUS,2
0122   2???           00636         GOTO    _00109_DS_
0123   2???           00637         GOTO    _00111_DS_
0124                  00638 _00105_DS_
                      00639 ;       .line   10; "led.c"     GPIO_InitPortPin(PORT_B, 0, GPIO_OUT);
0124   3000           00640         MOVLW   0x00
0125   00??           00641         MOVWF   STK01
0126   3000           00642         MOVLW   0x00
0127   00??           00643         MOVWF   STK00
0128   3001           00644         MOVLW   0x01
0129   ???? ????      00645         PAGESEL _GPIO_InitPortPin
012B   2???           00646         CALL    _GPIO_InitPortPin
012C   ???? ????      00647         PAGESEL $
                      00648 ;       .line   11; "led.c"     break;
012E   2???           00649         GOTO    _00111_DS_
012F                  00650 _00106_DS_
                      00651 ;       .line   14; "led.c"     GPIO_InitPortPin(PORT_B, 1, GPIO_OUT);
012F   3000           00652         MOVLW   0x00
0130   00??           00653         MOVWF   STK01
0131   3001           00654         MOVLW   0x01
0132   00??           00655         MOVWF   STK00
0133   3001           00656         MOVLW   0x01
0134   ???? ????      00657         PAGESEL _GPIO_InitPortPin
0136   2???           00658         CALL    _GPIO_InitPortPin
0137   ???? ????      00659         PAGESEL $
                      00660 ;       .line   15; "led.c"     break;
0139   2???           00661         GOTO    _00111_DS_
013A                  00662 _00107_DS_
                      00663 ;       .line   18; "led.c"     GPIO_InitPortPin(PORT_B, 2, GPIO_OUT);
013A   3000           00664         MOVLW   0x00
013B   00??           00665         MOVWF   STK01
013C   3002           00666         MOVLW   0x02
013D   00??           00667         MOVWF   STK00
013E   3001           00668         MOVLW   0x01
013F   ???? ????      00669         PAGESEL _GPIO_InitPortPin
0141   2???           00670         CALL    _GPIO_InitPortPin
0142   ???? ????      00671         PAGESEL $
                      00672 ;       .line   19; "led.c"     break;
0144   2???           00673         GOTO    _00111_DS_
0145                  00674 _00108_DS_
                      00675 ;       .line   22; "led.c"     GPIO_InitPortPin(PORT_B, 3, GPIO_OUT);
0145   3000           00676         MOVLW   0x00
0146   00??           00677         MOVWF   STK01
0147   3003           00678         MOVLW   0x03
0148   00??           00679         MOVWF   STK00
gpasm-1.4.0 #1106 (Oct  6 2014) obj\Release\l   7-19-2020  20:05:22         PAGE 14


LOC    OBJECT CODE    LINE  SOURCE TEXT
  VALUE

0149   3001           00680         MOVLW   0x01
014A   ???? ????      00681         PAGESEL _GPIO_InitPortPin
014C   2???           00682         CALL    _GPIO_InitPortPin
014D   ???? ????      00683         PAGESEL $
                      00684 ;       .line   23; "led.c"     break;
014F   2???           00685         GOTO    _00111_DS_
0150                  00686 _00109_DS_
                      00687 ;       .line   26; "led.c"     GPIO_InitPortPin(PORT_B, 7, GPIO_OUT);
0150   3000           00688         MOVLW   0x00
0151   00??           00689         MOVWF   STK01
0152   3007           00690         MOVLW   0x07
0153   00??           00691         MOVWF   STK00
0154   3001           00692         MOVLW   0x01
0155   ???? ????      00693         PAGESEL _GPIO_InitPortPin
0157   2???           00694         CALL    _GPIO_InitPortPin
0158   ???? ????      00695         PAGESEL $
015A                  00696 _00111_DS_
                      00697 ;       .line   34; "led.c"     LED_SetState(led, initial_state);
015A   ???? ????      00698         BANKSEL r0x1016
015C   08??           00699         MOVF    r0x1016,W
015D   00??           00700         MOVWF   STK00
015E   08??           00701         MOVF    r0x1015,W
015F   2???           00702         CALL    _LED_SetState
0160   0008           00703         RETURN  
                      00704 ; exit point of _LED_Init
                      00705 
                      00706 
                      00707 ;       code size estimation:
                      00708 ;         233+   60 =   293 instructions (  706 byte)
                      00709 
                      00710         end
gpasm-1.4.0 #1106 (Oct  6 2014) obj\Release\l   7-19-2020  20:05:22         PAGE 15


SYMBOL TABLE
  LABEL                             VALUE

ACKDT                             00000005
ACKEN                             00000004
ACKSTAT                           00000006
ADCON0                            0000001F
ADCON1                            0000009F
ADCS0                             00000006
ADCS1                             00000007
ADCS2                             00000006
ADDEN                             00000003
ADFM                              00000007
ADIE                              00000006
ADIF                              00000006
ADON                              00000000
ADRESH                            0000001E
ADRESL                            0000009E
BCLIE                             00000003
BCLIF                             00000003
BF                                00000000
BRGH                              00000002
C                                 00000000
C1INV                             00000004
C1OUT                             00000006
C2INV                             00000005
C2OUT                             00000007
CCP1CON                           00000017
CCP1IE                            00000002
CCP1IF                            00000002
CCP1M0                            00000000
CCP1M1                            00000001
CCP1M2                            00000002
CCP1M3                            00000003
CCP1X                             00000005
CCP1Y                             00000004
CCP2CON                           0000001D
CCP2IE                            00000000
CCP2IF                            00000000
CCP2M0                            00000000
CCP2M1                            00000001
CCP2M2                            00000002
CCP2M3                            00000003
CCP2X                             00000005
CCP2Y                             00000004
CCPR1                             00000015
CCPR1H                            00000016
CCPR1L                            00000015
CCPR2                             0000001B
CCPR2H                            0000001C
CCPR2L                            0000001B
CHS0                              00000003
CHS1                              00000004
CHS2                              00000005
CIS                               00000003
CKE                               00000006
gpasm-1.4.0 #1106 (Oct  6 2014) obj\Release\l   7-19-2020  20:05:22         PAGE 16


SYMBOL TABLE
  LABEL                             VALUE 

CKP                               00000004
CM0                               00000000
CM1                               00000001
CM2                               00000002
CMCON                             0000009C
CMIE                              00000006
CMIF                              00000006
CREN                              00000004
CSRC                              00000007
CVR0                              00000000
CVR1                              00000001
CVR2                              00000002
CVR3                              00000003
CVRCON                            0000009D
CVREN                             00000007
CVROE                             00000006
CVRR                              00000005
D                                 00000005
DATA_ADDRESS                      00000005
DC                                00000001
D_A                               00000005
D_NOT_A                           00000005
EEADR                             0000010D
EEADRH                            0000010F
EECON1                            0000018C
EECON2                            0000018D
EEDATA                            0000010C
EEDATH                            0000010E
EEIE                              00000004
EEIF                              00000004
EEPGD                             00000007
F                                 00000001
FERR                              00000002
FSR                               00000004
GCEN                              00000007
GIE                               00000007
GO                                00000002
GO_DONE                           00000002
GO_NOT_DONE                       00000002
I2C_DATA                          00000005
I2C_READ                          00000002
I2C_START                         00000003
I2C_STOP                          00000004
IBF                               00000007
IBOV                              00000005
INDF                              00000000
INTCON                            0000000B
INTE                              00000004
INTEDG                            00000006
INTF                              00000001
IRP                               00000007
NOT_A                             00000005
NOT_ADDRESS                       00000005
gpasm-1.4.0 #1106 (Oct  6 2014) obj\Release\l   7-19-2020  20:05:22         PAGE 17


SYMBOL TABLE
  LABEL                             VALUE 

NOT_BO                            00000000
NOT_BOR                           00000000
NOT_DONE                          00000002
NOT_PD                            00000003
NOT_POR                           00000001
NOT_RBPU                          00000007
NOT_RC8                           00000006
NOT_T1SYNC                        00000002
NOT_TO                            00000004
NOT_TX8                           00000006
NOT_W                             00000002
NOT_WRITE                         00000002
OBF                               00000006
OERR                              00000001
OPTION_REG                        00000081
P                                 00000004
PCFG0                             00000000
PCFG1                             00000001
PCFG2                             00000002
PCFG3                             00000003
PCL                               00000002
PCLATH                            0000000A
PCON                              0000008E
PEIE                              00000006
PEN                               00000002
PIE1                              0000008C
PIE2                              0000008D
PIR1                              0000000C
PIR2                              0000000D
PORTA                             00000005
PORTB                             00000006
PORTC                             00000007
PORTD                             00000008
PORTE                             00000009
PR2                               00000092
PS0                               00000000
PS1                               00000001
PS2                               00000002
PSA                               00000003
PSAVE                             00000000
PSPIE                             00000007
PSPIF                             00000007
PSPMODE                           00000004
R                                 00000002
RA0                               00000000
RA1                               00000001
RA2                               00000002
RA3                               00000003
RA4                               00000004
RA5                               00000005
RB0                               00000000
RB1                               00000001
RB2                               00000002
gpasm-1.4.0 #1106 (Oct  6 2014) obj\Release\l   7-19-2020  20:05:22         PAGE 18


SYMBOL TABLE
  LABEL                             VALUE 

RB3                               00000003
RB4                               00000004
RB5                               00000005
RB6                               00000006
RB7                               00000007
RBIE                              00000003
RBIF                              00000000
RC0                               00000000
RC1                               00000001
RC2                               00000002
RC3                               00000003
RC4                               00000004
RC5                               00000005
RC6                               00000006
RC7                               00000007
RC8_9                             00000006
RC9                               00000006
RCD8                              00000000
RCEN                              00000003
RCIE                              00000005
RCIF                              00000005
RCREG                             0000001A
RCSTA                             00000018
RD                                00000000
RD0                               00000000
RD1                               00000001
RD2                               00000002
RD3                               00000003
RD4                               00000004
RD5                               00000005
RD6                               00000006
RD7                               00000007
RE0                               00000000
RE1                               00000001
RE2                               00000002
READ_WRITE                        00000002
RP0                               00000005
RP1                               00000006
RSEN                              00000001
RX9                               00000006
RX9D                              00000000
R_NOT_W                           00000002
R_W                               00000002
S                                 00000003
SEN                               00000000
SMP                               00000007
SPBRG                             00000099
SPEN                              00000007
SREN                              00000005
SSAVE                             00000000
SSPADD                            00000093
SSPBUF                            00000013
SSPCON                            00000014
gpasm-1.4.0 #1106 (Oct  6 2014) obj\Release\l   7-19-2020  20:05:22         PAGE 19


SYMBOL TABLE
  LABEL                             VALUE 

SSPCON2                           00000091
SSPEN                             00000005
SSPIE                             00000003
SSPIF                             00000003
SSPM0                             00000000
SSPM1                             00000001
SSPM2                             00000002
SSPM3                             00000003
SSPOV                             00000006
SSPSTAT                           00000094
STATUS                            00000003
STK00                             00000000
STK01                             00000000
STK02                             00000000
STK03                             00000000
STK04                             00000000
STK05                             00000000
STK06                             00000000
STK07                             00000000
STK08                             00000000
STK09                             00000000
STK10                             00000000
STK11                             00000000
STK12                             00000000
SYNC                              00000004
T0CS                              00000005
T0IE                              00000005
T0IF                              00000002
T0SE                              00000004
T1CKPS0                           00000004
T1CKPS1                           00000005
T1CON                             00000010
T1INSYNC                          00000002
T1OSCEN                           00000003
T1SYNC                            00000002
T2CKPS0                           00000000
T2CKPS1                           00000001
T2CON                             00000012
TMR0                              00000001
TMR0IE                            00000005
TMR0IF                            00000002
TMR1                              0000000E
TMR1CS                            00000001
TMR1H                             0000000F
TMR1IE                            00000000
TMR1IF                            00000000
TMR1L                             0000000E
TMR1ON                            00000000
TMR2                              00000011
TMR2IE                            00000001
TMR2IF                            00000001
TMR2ON                            00000002
TOUTPS0                           00000003
gpasm-1.4.0 #1106 (Oct  6 2014) obj\Release\l   7-19-2020  20:05:22         PAGE 20


SYMBOL TABLE
  LABEL                             VALUE 

TOUTPS1                           00000004
TOUTPS2                           00000005
TOUTPS3                           00000006
TRISA                             00000085
TRISA0                            00000000
TRISA1                            00000001
TRISA2                            00000002
TRISA3                            00000003
TRISA4                            00000004
TRISA5                            00000005
TRISB                             00000086
TRISB0                            00000000
TRISB1                            00000001
TRISB2                            00000002
TRISB3                            00000003
TRISB4                            00000004
TRISB5                            00000005
TRISB6                            00000006
TRISB7                            00000007
TRISC                             00000087
TRISC0                            00000000
TRISC1                            00000001
TRISC2                            00000002
TRISC3                            00000003
TRISC4                            00000004
TRISC5                            00000005
TRISC6                            00000006
TRISC7                            00000007
TRISD                             00000088
TRISD0                            00000000
TRISD1                            00000001
TRISD2                            00000002
TRISD3                            00000003
TRISD4                            00000004
TRISD5                            00000005
TRISD6                            00000006
TRISD7                            00000007
TRISE                             00000089
TRISE0                            00000000
TRISE1                            00000001
TRISE2                            00000002
TRMT                              00000001
TX8_9                             00000006
TX9                               00000006
TX9D                              00000000
TXD8                              00000000
TXEN                              00000005
TXIE                              00000004
TXIF                              00000004
TXREG                             00000019
TXSTA                             00000098
UA                                00000001
W                                 00000000
gpasm-1.4.0 #1106 (Oct  6 2014) obj\Release\l   7-19-2020  20:05:22         PAGE 21


SYMBOL TABLE
  LABEL                             VALUE 

WCOL                              00000007
WR                                00000001
WREN                              00000002
WRERR                             00000003
WSAVE                             00000000
Z                                 00000002
_00001_DS_                        000000DF
_00105_DS_                        00000124
_00106_DS_                        0000012F
_00107_DS_                        0000013A
_00108_DS_                        00000145
_00109_DS_                        00000150
_00111_DS_                        0000015A
_00138_DS_                        000000E3
_00139_DS_                        000000E8
_00141_DS_                        000000F9
_00142_DS_                        00000105
_00145_DS_                        00000109
_00154_DS_                        000000E0
_00159_DS_                        00000089
_00160_DS_                        00000095
_00161_DS_                        000000A1
_00162_DS_                        000000AD
_00163_DS_                        000000B9
_00165_DS_                        000000C4
_00192_DS_                        0000002F
_00193_DS_                        0000003C
_00194_DS_                        00000049
_00195_DS_                        00000056
_00196_DS_                        00000063
_00199_DS_                        0000006F
_00226_DS_                        0000000E
_00228_DS_                        00000014
_ADCON0                           00000000
_ADCON0bits                       00000000
_ADCON1                           00000000
_ADCON1bits                       00000000
_ADC_GetResult                    00000000
_ADC_Init                         00000000
_ADC_Update                       00000000
_ADRESH                           00000000
_ADRESL                           00000000
_BODEN_OFF                        00003FBF
_BODEN_ON                         00003FFF
_BOREN_OFF                        00003FBF
_BOREN_ON                         00003FFF
_CCP1CON                          00000000
_CCP1CONbits                      00000000
_CCP2CON                          00000000
_CCP2CONbits                      00000000
_CCPR1                            00000000
_CCPR1H                           00000000
_CCPR1L                           00000000
gpasm-1.4.0 #1106 (Oct  6 2014) obj\Release\l   7-19-2020  20:05:22         PAGE 22


SYMBOL TABLE
  LABEL                             VALUE 

_CCPR2                            00000000
_CCPR2H                           00000000
_CCPR2L                           00000000
_CMCON                            00000000
_CMCONbits                        00000000
_CONFIG                           00002007
_CPD_OFF                          00003FFF
_CPD_ON                           00003EFF
_CP_ALL                           00001FFF
_CP_OFF                           00003FFF
_CP_ON                            00001FFF
_CVRCON                           00000000
_CVRCONbits                       00000000
_Cooler_GetState                  00000000
_Cooler_Init                      00000000
_Cooler_SetState                  00000000
_Cooler_update                    00000000
_Counters                         00000000
_DEBUG_OFF                        00003FFF
_DEBUG_ON                         000037FF
_DEVID1                           00002006
_EEADR                            00000000
_EEADRH                           00000000
_EECON1                           00000000
_EECON1bits                       00000000
_EECON2                           00000000
_EEDATA                           00000000
_EEDATH                           00000000
_FOSC_EXTRC                       00003FFF
_FOSC_HS                          00003FFE
_FOSC_LP                          00003FFC
_FOSC_XT                          00003FFD
_FSR                              00000000
_Flags                            00000000
_GPIO_GetPortPinState             00000000
_GPIO_InitPort                    00000000
_GPIO_InitPortPin                 00000000
_GPIO_SetPortPinState             00000000
_GPIO_SetPortState                00000000
_GPIO_Update                      00000000
_HS_OSC                           00003FFE
_Heater_GetState                  00000000
_Heater_Init                      00000000
_Heater_update                    00000000
_I2C_Begin                        00000000
_I2C_End                          00000000
_I2C_Hold                         00000000
_I2C_Init                         00000000
_I2C_Read                         00000000
_I2C_Write                        00000000
_IDLOC0                           00002000
_IDLOC1                           00002001
_IDLOC2                           00002002
gpasm-1.4.0 #1106 (Oct  6 2014) obj\Release\l   7-19-2020  20:05:22         PAGE 23


SYMBOL TABLE
  LABEL                             VALUE 

_IDLOC3                           00002003
_INDF                             00000000
_INTCON                           00000000
_INTCONbits                       00000000
_LED_GetState                     00000070
_LED_Init                         0000010A
_LED_SetState                     00000015
_LED_Toggle                       00000000
_LED_Update                       000000C8
_LP_OSC                           00003FFC
_LVP_OFF                          00003F7F
_LVP_ON                           00003FFF
_OPTION_REG                       00000000
_OPTION_REGbits                   00000000
_PB_GetState                      00000000
_PB_Init                          00000000
_PB_Update                        00000000
_PCL                              00000000
_PCLATH                           00000000
_PCON                             00000000
_PCONbits                         00000000
_PIE1                             00000000
_PIE1bits                         00000000
_PIE2                             00000000
_PIE2bits                         00000000
_PIR1                             00000000
_PIR1bits                         00000000
_PIR2                             00000000
_PIR2bits                         00000000
_PORTA                            00000000
_PORTAbits                        00000000
_PORTB                            00000000
_PORTBbits                        00000000
_PORTC                            00000000
_PORTCbits                        00000000
_PORTD                            00000000
_PORTDbits                        00000000
_PORTE                            00000000
_PORTEbits                        00000000
_PR2                              00000000
_PWRTE_OFF                        00003FFF
_PWRTE_ON                         00003FF7
_RCREG                            00000000
_RCSTA                            00000000
_RCSTAbits                        00000000
_RC_OSC                           00003FFF
_Readings                         00000000
_SPBRG                            00000000
_SSD_GET_Symbol                   00000000
_SSD_GET_state                    00000000
_SSD_Init                         00000000
_SSD_SET_Symbol                   00000000
_SSD_SET_state                    00000000
gpasm-1.4.0 #1106 (Oct  6 2014) obj\Release\l   7-19-2020  20:05:22         PAGE 24


SYMBOL TABLE
  LABEL                             VALUE 

_SSD_update                       00000000
_SSPADD                           00000000
_SSPBUF                           00000000
_SSPCON                           00000000
_SSPCON2                          00000000
_SSPCON2bits                      00000000
_SSPCONbits                       00000000
_SSPSTAT                          00000000
_SSPSTATbits                      00000000
_STATUS                           00000000
_STATUSbits                       00000000
_SettingMode_update               00000000
_Start_conversion_Int             00000000
_T1CON                            00000000
_T1CONbits                        00000000
_T2CON                            00000000
_T2CONbits                        00000000
_TMR0                             00000000
_TMR0_Init                        00000000
_TMR0_Start                       00000000
_TMR0_Update                      00000000
_TMR1                             00000000
_TMR1H                            00000000
_TMR1L                            00000000
_TMR2                             00000000
_TRISA                            00000000
_TRISAbits                        00000000
_TRISB                            00000000
_TRISBbits                        00000000
_TRISC                            00000000
_TRISCbits                        00000000
_TRISD                            00000000
_TRISDbits                        00000000
_TRISE                            00000000
_TRISEbits                        00000000
_TXREG                            00000000
_TXSTA                            00000000
_TXSTAbits                        00000000
_Temprature_Init                  00000000
_Temprature_update                00000000
_UTIL_DelayMS                     00000000
_WDTE_OFF                         00003FFB
_WDTE_ON                          00003FFF
_WDT_OFF                          00003FFB
_WDT_ON                           00003FFF
_WRT_1FOURTH                      00003BFF
_WRT_256                          00003DFF
_WRT_HALF                         000039FF
_WRT_OFF                          00003FFF
_XT_OSC                           00003FFD
__16F877A                         00000001
__CODE_END                        00001FFF
__CODE_START                      00000000
gpasm-1.4.0 #1106 (Oct  6 2014) obj\Release\l   7-19-2020  20:05:22         PAGE 25


SYMBOL TABLE
  LABEL                             VALUE 

__COMMON_RAM_END                  0000007F
__COMMON_RAM_START                00000070
__EEPROM_END                      000021FF
__EEPROM_START                    00002100
__VECTOR_INT                      00000004
__VECTOR_RESET                    00000000
_code_led_0039                    00000039
_code_led_0046                    00000046
_code_led_0053                    00000053
_code_led_0060                    00000060
_code_led_006D                    0000006D
_code_led_008F                    0000008F
_code_led_009B                    0000009B
_code_led_00A7                    000000A7
_code_led_00B3                    000000B3
_code_led_00BF                    000000BF
_code_led_012C                    0000012C
_code_led_0137                    00000137
_code_led_0142                    00000142
_code_led_014D                    0000014D
_code_led_0158                    00000158
_e2pex_update                     00000000
_e2pext_r                         00000000
_e2pext_w                         00000000
r0x1010                           00000003
r0x1011                           00000004
r0x1012                           00000005
r0x1014                           00000002
r0x1015                           00000000
r0x1016                           00000001

Errors   :     0
Warnings :     0 reported,     0 suppressed
Messages :     0 reported,     0 suppressed

