gpasm-1.4.0 #1106 (Oct  6 2014) obj\Release\p   7-19-2020  20:05:22         PAGE  1


LOC    OBJECT CODE    LINE  SOURCE TEXT
  VALUE

                      00001 ;--------------------------------------------------------
                      00002 ; File Created by SDCC : free open source ANSI-C Compiler
                      00003 ; Version 3.5.0 #9253 (Jun 20 2015) (MINGW32)
                      00004 ; This file was generated Sun Jul 19 20:05:22 2020
                      00005 ;--------------------------------------------------------
                      00006 ; PIC port for the 14-bit core
                      00007 ;--------------------------------------------------------
                      00008 ;       .file   "push_button.c"
                      00009         list    p=16f877a
                      00010         radix dec
                      00011         include "p16f877a.inc"
                      00001         LIST
                      00002 
                      00003 ;==========================================================================
                      00004 ; Build date : Aug 07 2014
                      00005 ;  MPASM PIC16F877A processor include
                      00006 ; 
                      00007 ;  (c) Copyright 1999-2014 Microchip Technology, All rights reserved
                      00008 ;==========================================================================
                      00009 
                      00567         LIST
                      00012 ;--------------------------------------------------------
                      00013 ; external declarations
                      00014 ;--------------------------------------------------------
  0000                00015         extern  _GPIO_InitPortPin
  0000                00016         extern  _GPIO_InitPort
  0000                00017         extern  _GPIO_Update
  0000                00018         extern  _GPIO_SetPortPinState
  0000                00019         extern  _GPIO_SetPortState
  0000                00020         extern  _GPIO_GetPortPinState
  0000                00021         extern  _ADC_Init
  0000                00022         extern  _ADC_Update
  0000                00023         extern  _ADC_GetResult
  0000                00024         extern  _Start_conversion_Int
  0000                00025         extern  _Temprature_Init
  0000                00026         extern  _Temprature_update
  0000                00027         extern  _LED_Init
  0000                00028         extern  _LED_GetState
  0000                00029         extern  _LED_Update
  0000                00030         extern  _Heater_Init
  0000                00031         extern  _Heater_update
  0000                00032         extern  _Heater_GetState
  0000                00033         extern  _Cooler_Init
  0000                00034         extern  _Cooler_SetState
  0000                00035         extern  _Cooler_GetState
  0000                00036         extern  _Cooler_update
  0000                00037         extern  _I2C_Init
  0000                00038         extern  _I2C_Hold
  0000                00039         extern  _I2C_Begin
  0000                00040         extern  _I2C_End
  0000                00041         extern  _I2C_Write
  0000                00042         extern  _I2C_Read
  0000                00043         extern  _e2pext_r
gpasm-1.4.0 #1106 (Oct  6 2014) obj\Release\p   7-19-2020  20:05:22         PAGE  2


LOC    OBJECT CODE    LINE  SOURCE TEXT
  VALUE

  0000                00044         extern  _e2pext_w
  0000                00045         extern  _e2pex_update
  0000                00046         extern  _TMR0_Init
  0000                00047         extern  _TMR0_Update
  0000                00048         extern  _TMR0_Start
  0000                00049         extern  _UTIL_DelayMS
  0000                00050         extern  _SSD_Init
  0000                00051         extern  _SSD_SET_Symbol
  0000                00052         extern  _SSD_SET_state
  0000                00053         extern  _SSD_GET_state
  0000                00054         extern  _SSD_GET_Symbol
  0000                00055         extern  _SSD_update
  0000                00056         extern  _SettingMode_update
  0000                00057         extern  _STATUSbits
  0000                00058         extern  _PORTAbits
  0000                00059         extern  _PORTBbits
  0000                00060         extern  _PORTCbits
  0000                00061         extern  _PORTDbits
  0000                00062         extern  _PORTEbits
  0000                00063         extern  _INTCONbits
  0000                00064         extern  _PIR1bits
  0000                00065         extern  _PIR2bits
  0000                00066         extern  _T1CONbits
  0000                00067         extern  _T2CONbits
  0000                00068         extern  _SSPCONbits
  0000                00069         extern  _CCP1CONbits
  0000                00070         extern  _RCSTAbits
  0000                00071         extern  _CCP2CONbits
  0000                00072         extern  _ADCON0bits
  0000                00073         extern  _OPTION_REGbits
  0000                00074         extern  _TRISAbits
  0000                00075         extern  _TRISBbits
  0000                00076         extern  _TRISCbits
  0000                00077         extern  _TRISDbits
  0000                00078         extern  _TRISEbits
  0000                00079         extern  _PIE1bits
  0000                00080         extern  _PIE2bits
  0000                00081         extern  _PCONbits
  0000                00082         extern  _SSPCON2bits
  0000                00083         extern  _SSPSTATbits
  0000                00084         extern  _TXSTAbits
  0000                00085         extern  _CMCONbits
  0000                00086         extern  _CVRCONbits
  0000                00087         extern  _ADCON1bits
  0000                00088         extern  _EECON1bits
  0000                00089         extern  _Counters
  0000                00090         extern  _Flags
  0000                00091         extern  _Readings
  0000                00092         extern  _INDF
  0000                00093         extern  _TMR0
  0000                00094         extern  _PCL
  0000                00095         extern  _STATUS
  0000                00096         extern  _FSR
gpasm-1.4.0 #1106 (Oct  6 2014) obj\Release\p   7-19-2020  20:05:22         PAGE  3


LOC    OBJECT CODE    LINE  SOURCE TEXT
  VALUE

  0000                00097         extern  _PORTA
  0000                00098         extern  _PORTB
  0000                00099         extern  _PORTC
  0000                00100         extern  _PORTD
  0000                00101         extern  _PORTE
  0000                00102         extern  _PCLATH
  0000                00103         extern  _INTCON
  0000                00104         extern  _PIR1
  0000                00105         extern  _PIR2
  0000                00106         extern  _TMR1
  0000                00107         extern  _TMR1L
  0000                00108         extern  _TMR1H
  0000                00109         extern  _T1CON
  0000                00110         extern  _TMR2
  0000                00111         extern  _T2CON
  0000                00112         extern  _SSPBUF
  0000                00113         extern  _SSPCON
  0000                00114         extern  _CCPR1
  0000                00115         extern  _CCPR1L
  0000                00116         extern  _CCPR1H
  0000                00117         extern  _CCP1CON
  0000                00118         extern  _RCSTA
  0000                00119         extern  _TXREG
  0000                00120         extern  _RCREG
  0000                00121         extern  _CCPR2
  0000                00122         extern  _CCPR2L
  0000                00123         extern  _CCPR2H
  0000                00124         extern  _CCP2CON
  0000                00125         extern  _ADRESH
  0000                00126         extern  _ADCON0
  0000                00127         extern  _OPTION_REG
  0000                00128         extern  _TRISA
  0000                00129         extern  _TRISB
  0000                00130         extern  _TRISC
  0000                00131         extern  _TRISD
  0000                00132         extern  _TRISE
  0000                00133         extern  _PIE1
  0000                00134         extern  _PIE2
  0000                00135         extern  _PCON
  0000                00136         extern  _SSPCON2
  0000                00137         extern  _PR2
  0000                00138         extern  _SSPADD
  0000                00139         extern  _SSPSTAT
  0000                00140         extern  _TXSTA
  0000                00141         extern  _SPBRG
  0000                00142         extern  _CMCON
  0000                00143         extern  _CVRCON
  0000                00144         extern  _ADRESL
  0000                00145         extern  _ADCON1
  0000                00146         extern  _EEDATA
  0000                00147         extern  _EEADR
  0000                00148         extern  _EEDATH
  0000                00149         extern  _EEADRH
gpasm-1.4.0 #1106 (Oct  6 2014) obj\Release\p   7-19-2020  20:05:22         PAGE  4


LOC    OBJECT CODE    LINE  SOURCE TEXT
  VALUE

  0000                00150         extern  _EECON1
  0000                00151         extern  _EECON2
  0000                00152         extern  __mulchar
                      00153 
  0000                00154         extern PSAVE
  0000                00155         extern SSAVE
  0000                00156         extern WSAVE
  0000                00157         extern STK12
  0000                00158         extern STK11
  0000                00159         extern STK10
  0000                00160         extern STK09
  0000                00161         extern STK08
  0000                00162         extern STK07
  0000                00163         extern STK06
  0000                00164         extern STK05
  0000                00165         extern STK04
  0000                00166         extern STK03
  0000                00167         extern STK02
  0000                00168         extern STK01
  0000                00169         extern STK00
                      00170 ;--------------------------------------------------------
                      00171 ; global declarations
                      00172 ;--------------------------------------------------------
  0000                00173         global  _PB_GetState
  0000                00174         global  _PB_Update
  0000                00175         global  _PB_Init
                      00176 
                      00177 ;--------------------------------------------------------
                      00178 ; global definitions
                      00179 ;--------------------------------------------------------
                      00180 ;--------------------------------------------------------
                      00181 ; absolute symbol definitions
                      00182 ;--------------------------------------------------------
                      00183 ;--------------------------------------------------------
                      00184 ; compiler-defined variables
                      00185 ;--------------------------------------------------------
                      00186 UDL_push_button_0       udata
0000                  00187 r0x102E res     1
0001                  00188 r0x102F res     1
0002                  00189 r0x1030 res     1
0003                  00190 r0x1031 res     1
0004                  00191 r0x1032 res     1
0005                  00192 r0x1026 res     1
0006                  00193 r0x1027 res     1
0007                  00194 r0x1028 res     1
0008                  00195 r0x1029 res     1
0009                  00196 r0x102A res     1
000A                  00197 r0x102B res     1
000B                  00198 r0x102C res     1
000C                  00199 r0x102D res     1
000D                  00200 r0x101E res     1
000E                  00201 r0x101F res     1
000F                  00202 r0x1020 res     1
gpasm-1.4.0 #1106 (Oct  6 2014) obj\Release\p   7-19-2020  20:05:22         PAGE  5


LOC    OBJECT CODE    LINE  SOURCE TEXT
  VALUE

0010                  00203 r0x1021 res     1
0011                  00204 r0x1022 res     1
0012                  00205 r0x1023 res     1
0013                  00206 r0x1024 res     1
0014                  00207 r0x1025 res     1
0015                  00208 _pb_info        res     12
                      00209 ;--------------------------------------------------------
                      00210 ; initialized data
                      00211 ;--------------------------------------------------------
                      00212 ;--------------------------------------------------------
                      00213 ; overlayable items in internal ram 
                      00214 ;--------------------------------------------------------
                      00215 ;       udata_ovr
                      00216 ;--------------------------------------------------------
                      00217 ; code
                      00218 ;--------------------------------------------------------
                      00219 code_push_button        code
                      00220 ;***
                      00221 ;  pBlock Stats: dbName = C
                      00222 ;***
                      00223 ;entry:  _SetValue_update       ;Function start
                      00224 ; 2 exit points
                      00225 ;has an exit
                      00226 ;functions called:
                      00227 ;   _PB_GetState
                      00228 ;   _PB_GetState
                      00229 ;   _PB_GetState
                      00230 ;   _PB_GetState
                      00231 ;4 compiler assigned registers:
                      00232 ;   r0x1022
                      00233 ;   r0x1023
                      00234 ;   r0x1024
                      00235 ;   r0x1025
                      00236 ;; Starting pCode block
0000                  00237 _SetValue_update        ;Function start
                      00238 ; 2 exit points
                      00239 ;       .line   134; "push_button.c"    if(Readings.Set_value <= 75 && Readings.Set_value >= 35)
0000   ???? ????      00240         BANKSEL _Readings
0002   08??           00241         MOVF    (_Readings + 4),W
0003   ???? ????      00242         BANKSEL r0x1022
0005   00??           00243         MOVWF   r0x1022
0006   ???? ????      00244         BANKSEL _Readings
0008   08??           00245         MOVF    (_Readings + 5),W
0009   ???? ????      00246         BANKSEL r0x1023
000B   00??           00247         MOVWF   r0x1023
000C   ???? ????      00248         BANKSEL _Readings
000E   08??           00249         MOVF    (_Readings + 6),W
000F   ???? ????      00250         BANKSEL r0x1024
0011   00??           00251         MOVWF   r0x1024
0012   ???? ????      00252         BANKSEL _Readings
0014   08??           00253         MOVF    (_Readings + 7),W
0015   ???? ????      00254         BANKSEL r0x1025
0017   00??           00255         MOVWF   r0x1025
gpasm-1.4.0 #1106 (Oct  6 2014) obj\Release\p   7-19-2020  20:05:22         PAGE  6


LOC    OBJECT CODE    LINE  SOURCE TEXT
  VALUE

                      00256 ;;swapping arguments (AOP_TYPEs 1/2)
                      00257 ;;unsigned compare: left >= lit(0x4C=76), size=4
0018   3000           00258         MOVLW   0x00
0019   02??           00259         SUBWF   r0x1025,W
001A   1D03           00260         BTFSS   STATUS,2
001B   2???           00261         GOTO    _00234_DS_
001C   3000           00262         MOVLW   0x00
001D   02??           00263         SUBWF   r0x1024,W
001E   1D03           00264         BTFSS   STATUS,2
001F   2???           00265         GOTO    _00234_DS_
0020   3000           00266         MOVLW   0x00
0021   02??           00267         SUBWF   r0x1023,W
0022   1D03           00268         BTFSS   STATUS,2
0023   2???           00269         GOTO    _00234_DS_
0024   304C           00270         MOVLW   0x4c
0025   02??           00271         SUBWF   r0x1022,W
0026                  00272 _00234_DS_
0026   1803           00273         BTFSC   STATUS,0
0027   2???           00274         GOTO    _00214_DS_
                      00275 ;;genSkipc:3247: created from rifx:027A5DF4
                      00276 ;;unsigned compare: left < lit(0x23=35), size=4
0028   3000           00277         MOVLW   0x00
0029   ???? ????      00278         BANKSEL r0x1025
002B   02??           00279         SUBWF   r0x1025,W
002C   1D03           00280         BTFSS   STATUS,2
002D   2???           00281         GOTO    _00235_DS_
002E   3000           00282         MOVLW   0x00
002F   02??           00283         SUBWF   r0x1024,W
0030   1D03           00284         BTFSS   STATUS,2
0031   2???           00285         GOTO    _00235_DS_
0032   3000           00286         MOVLW   0x00
0033   02??           00287         SUBWF   r0x1023,W
0034   1D03           00288         BTFSS   STATUS,2
0035   2???           00289         GOTO    _00235_DS_
0036   3023           00290         MOVLW   0x23
0037   02??           00291         SUBWF   r0x1022,W
0038                  00292 _00235_DS_
0038   1C03           00293         BTFSS   STATUS,0
0039   2???           00294         GOTO    _00214_DS_
                      00295 ;;genSkipc:3247: created from rifx:027A5DF4
                      00296 ;       .line   136; "push_button.c"    if(PB_GetState(PB_UP) == PB_PRE_RELEASED)
003A   3002           00297         MOVLW   0x02
003B   2???           00298         CALL    _PB_GetState
003C   ???? ????      00299         BANKSEL r0x1022
003E   00??           00300         MOVWF   r0x1022
003F   3A03           00301         XORLW   0x03
0040   1D03           00302         BTFSS   STATUS,2
0041   2???           00303         GOTO    _00209_DS_
                      00304 ;;/home/sdcc-builder/build/sdcc-build/orig/sdcc/src/pic14/gen.c:6461: size=1, offset=0, AOP_TYPE(res)=8
                      00305 ;       .line   138; "push_button.c"    Counters.FixedMode_counter = 0; //count new 5 seconds
0042   ???? ????      00306         BANKSEL _Counters
0044   01??           00307         CLRF    (_Counters + 0)
                      00308 ;;/home/sdcc-builder/build/sdcc-build/orig/sdcc/src/pic14/gen.c:6461: size=0, offset=1, AOP_TYPE(res)=8
gpasm-1.4.0 #1106 (Oct  6 2014) obj\Release\p   7-19-2020  20:05:22         PAGE  7


LOC    OBJECT CODE    LINE  SOURCE TEXT
  VALUE

0045   01??           00309         CLRF    (_Counters + 1)
                      00310 ;       .line   139; "push_button.c"    Readings.Set_value+=5 ;
0046   ???? ????      00311         BANKSEL _Readings
0048   08??           00312         MOVF    (_Readings + 4),W
0049   ???? ????      00313         BANKSEL r0x1022
004B   00??           00314         MOVWF   r0x1022
004C   ???? ????      00315         BANKSEL _Readings
004E   08??           00316         MOVF    (_Readings + 5),W
004F   ???? ????      00317         BANKSEL r0x1023
0051   00??           00318         MOVWF   r0x1023
0052   ???? ????      00319         BANKSEL _Readings
0054   08??           00320         MOVF    (_Readings + 6),W
0055   ???? ????      00321         BANKSEL r0x1024
0057   00??           00322         MOVWF   r0x1024
0058   ???? ????      00323         BANKSEL _Readings
005A   08??           00324         MOVF    (_Readings + 7),W
005B   ???? ????      00325         BANKSEL r0x1025
005D   00??           00326         MOVWF   r0x1025
005E   3005           00327         MOVLW   0x05
005F   07??           00328         ADDWF   r0x1022,F
0060   1803           00329         BTFSC   STATUS,0
0061   0A??           00330         INCF    r0x1023,F
0062   1903           00331         BTFSC   STATUS,2
0063   0A??           00332         INCF    r0x1024,F
0064   1903           00333         BTFSC   STATUS,2
0065   0A??           00334         INCF    r0x1025,F
                      00335 ;;/home/sdcc-builder/build/sdcc-build/orig/sdcc/src/pic14/gen.c:6461: size=3, offset=0, AOP_TYPE(res)=8
0066   08??           00336         MOVF    r0x1022,W
0067   ???? ????      00337         BANKSEL _Readings
0069   00??           00338         MOVWF   (_Readings + 4)
                      00339 ;;/home/sdcc-builder/build/sdcc-build/orig/sdcc/src/pic14/gen.c:6461: size=2, offset=1, AOP_TYPE(res)=8
006A   ???? ????      00340         BANKSEL r0x1023
006C   08??           00341         MOVF    r0x1023,W
006D   ???? ????      00342         BANKSEL _Readings
006F   00??           00343         MOVWF   (_Readings + 5)
                      00344 ;;/home/sdcc-builder/build/sdcc-build/orig/sdcc/src/pic14/gen.c:6461: size=1, offset=2, AOP_TYPE(res)=8
0070   ???? ????      00345         BANKSEL r0x1024
0072   08??           00346         MOVF    r0x1024,W
0073   ???? ????      00347         BANKSEL _Readings
0075   00??           00348         MOVWF   (_Readings + 6)
                      00349 ;;/home/sdcc-builder/build/sdcc-build/orig/sdcc/src/pic14/gen.c:6461: size=0, offset=3, AOP_TYPE(res)=8
0076   ???? ????      00350         BANKSEL r0x1025
0078   08??           00351         MOVF    r0x1025,W
0079   ???? ????      00352         BANKSEL _Readings
007B   00??           00353         MOVWF   (_Readings + 7)
                      00354 ;;swapping arguments (AOP_TYPEs 1/2)
                      00355 ;;unsigned compare: left >= lit(0x4C=76), size=4
                      00356 ;       .line   140; "push_button.c"    if(Readings.Set_value > 75)
007C   3000           00357         MOVLW   0x00
007D   ???? ????      00358         BANKSEL r0x1025
007F   02??           00359         SUBWF   r0x1025,W
0080   1D03           00360         BTFSS   STATUS,2
0081   2???           00361         GOTO    _00236_DS_
gpasm-1.4.0 #1106 (Oct  6 2014) obj\Release\p   7-19-2020  20:05:22         PAGE  8


LOC    OBJECT CODE    LINE  SOURCE TEXT
  VALUE

0082   3000           00362         MOVLW   0x00
0083   02??           00363         SUBWF   r0x1024,W
0084   1D03           00364         BTFSS   STATUS,2
0085   2???           00365         GOTO    _00236_DS_
0086   3000           00366         MOVLW   0x00
0087   02??           00367         SUBWF   r0x1023,W
0088   1D03           00368         BTFSS   STATUS,2
0089   2???           00369         GOTO    _00236_DS_
008A   304C           00370         MOVLW   0x4c
008B   02??           00371         SUBWF   r0x1022,W
008C                  00372 _00236_DS_
008C   1C03           00373         BTFSS   STATUS,0
008D   2???           00374         GOTO    _00214_DS_
                      00375 ;;genSkipc:3247: created from rifx:027A5DF4
                      00376 ;;/home/sdcc-builder/build/sdcc-build/orig/sdcc/src/pic14/gen.c:6461: size=3, offset=0, AOP_TYPE(res)=8
                      00377 ;       .line   142; "push_button.c"    Readings.Set_value = 75 ;
008E   304B           00378         MOVLW   0x4b
008F   ???? ????      00379         BANKSEL _Readings
0091   00??           00380         MOVWF   (_Readings + 4)
                      00381 ;;/home/sdcc-builder/build/sdcc-build/orig/sdcc/src/pic14/gen.c:6461: size=2, offset=1, AOP_TYPE(res)=8
0092   01??           00382         CLRF    (_Readings + 5)
                      00383 ;;/home/sdcc-builder/build/sdcc-build/orig/sdcc/src/pic14/gen.c:6461: size=1, offset=2, AOP_TYPE(res)=8
0093   01??           00384         CLRF    (_Readings + 6)
                      00385 ;;/home/sdcc-builder/build/sdcc-build/orig/sdcc/src/pic14/gen.c:6461: size=0, offset=3, AOP_TYPE(res)=8
0094   01??           00386         CLRF    (_Readings + 7)
0095   2???           00387         GOTO    _00214_DS_
0096                  00388 _00209_DS_
                      00389 ;       .line   145; "push_button.c"    else if(PB_GetState(PB_DOWN) == PB_PRE_RELEASED)
0096   3001           00390         MOVLW   0x01
0097   2???           00391         CALL    _PB_GetState
0098   ???? ????      00392         BANKSEL r0x1022
009A   00??           00393         MOVWF   r0x1022
009B   3A03           00394         XORLW   0x03
009C   1D03           00395         BTFSS   STATUS,2
009D   2???           00396         GOTO    _00214_DS_
                      00397 ;;/home/sdcc-builder/build/sdcc-build/orig/sdcc/src/pic14/gen.c:6461: size=1, offset=0, AOP_TYPE(res)=8
                      00398 ;       .line   147; "push_button.c"    Counters.FixedMode_counter = 0; //count new 5 seconds
009E   ???? ????      00399         BANKSEL _Counters
00A0   01??           00400         CLRF    (_Counters + 0)
                      00401 ;;/home/sdcc-builder/build/sdcc-build/orig/sdcc/src/pic14/gen.c:6461: size=0, offset=1, AOP_TYPE(res)=8
00A1   01??           00402         CLRF    (_Counters + 1)
                      00403 ;       .line   148; "push_button.c"    Readings.Set_value-= 5 ;
00A2   ???? ????      00404         BANKSEL _Readings
00A4   08??           00405         MOVF    (_Readings + 4),W
00A5   ???? ????      00406         BANKSEL r0x1022
00A7   00??           00407         MOVWF   r0x1022
00A8   ???? ????      00408         BANKSEL _Readings
00AA   08??           00409         MOVF    (_Readings + 5),W
00AB   ???? ????      00410         BANKSEL r0x1023
00AD   00??           00411         MOVWF   r0x1023
00AE   ???? ????      00412         BANKSEL _Readings
00B0   08??           00413         MOVF    (_Readings + 6),W
00B1   ???? ????      00414         BANKSEL r0x1024
gpasm-1.4.0 #1106 (Oct  6 2014) obj\Release\p   7-19-2020  20:05:22         PAGE  9


LOC    OBJECT CODE    LINE  SOURCE TEXT
  VALUE

00B3   00??           00415         MOVWF   r0x1024
00B4   ???? ????      00416         BANKSEL _Readings
00B6   08??           00417         MOVF    (_Readings + 7),W
00B7   ???? ????      00418         BANKSEL r0x1025
00B9   00??           00419         MOVWF   r0x1025
00BA   30FB           00420         MOVLW   0xfb
00BB   07??           00421         ADDWF   r0x1022,F
00BC   30FF           00422         MOVLW   0xff
00BD   1C03           00423         BTFSS   STATUS,0
00BE   07??           00424         ADDWF   r0x1023,F
00BF   30FF           00425         MOVLW   0xff
00C0   1C03           00426         BTFSS   STATUS,0
00C1   07??           00427         ADDWF   r0x1024,F
00C2   30FF           00428         MOVLW   0xff
00C3   1C03           00429         BTFSS   STATUS,0
00C4   07??           00430         ADDWF   r0x1025,F
                      00431 ;;/home/sdcc-builder/build/sdcc-build/orig/sdcc/src/pic14/gen.c:6461: size=3, offset=0, AOP_TYPE(res)=8
00C5   08??           00432         MOVF    r0x1022,W
00C6   ???? ????      00433         BANKSEL _Readings
00C8   00??           00434         MOVWF   (_Readings + 4)
                      00435 ;;/home/sdcc-builder/build/sdcc-build/orig/sdcc/src/pic14/gen.c:6461: size=2, offset=1, AOP_TYPE(res)=8
00C9   ???? ????      00436         BANKSEL r0x1023
00CB   08??           00437         MOVF    r0x1023,W
00CC   ???? ????      00438         BANKSEL _Readings
00CE   00??           00439         MOVWF   (_Readings + 5)
                      00440 ;;/home/sdcc-builder/build/sdcc-build/orig/sdcc/src/pic14/gen.c:6461: size=1, offset=2, AOP_TYPE(res)=8
00CF   ???? ????      00441         BANKSEL r0x1024
00D1   08??           00442         MOVF    r0x1024,W
00D2   ???? ????      00443         BANKSEL _Readings
00D4   00??           00444         MOVWF   (_Readings + 6)
                      00445 ;;/home/sdcc-builder/build/sdcc-build/orig/sdcc/src/pic14/gen.c:6461: size=0, offset=3, AOP_TYPE(res)=8
00D5   ???? ????      00446         BANKSEL r0x1025
00D7   08??           00447         MOVF    r0x1025,W
00D8   ???? ????      00448         BANKSEL _Readings
00DA   00??           00449         MOVWF   (_Readings + 7)
                      00450 ;;unsigned compare: left < lit(0x23=35), size=4
                      00451 ;       .line   149; "push_button.c"    if(Readings.Set_value < 35)
00DB   3000           00452         MOVLW   0x00
00DC   ???? ????      00453         BANKSEL r0x1025
00DE   02??           00454         SUBWF   r0x1025,W
00DF   1D03           00455         BTFSS   STATUS,2
00E0   2???           00456         GOTO    _00237_DS_
00E1   3000           00457         MOVLW   0x00
00E2   02??           00458         SUBWF   r0x1024,W
00E3   1D03           00459         BTFSS   STATUS,2
00E4   2???           00460         GOTO    _00237_DS_
00E5   3000           00461         MOVLW   0x00
00E6   02??           00462         SUBWF   r0x1023,W
00E7   1D03           00463         BTFSS   STATUS,2
00E8   2???           00464         GOTO    _00237_DS_
00E9   3023           00465         MOVLW   0x23
00EA   02??           00466         SUBWF   r0x1022,W
00EB                  00467 _00237_DS_
gpasm-1.4.0 #1106 (Oct  6 2014) obj\Release\p   7-19-2020  20:05:22         PAGE 10


LOC    OBJECT CODE    LINE  SOURCE TEXT
  VALUE

00EB   1803           00468         BTFSC   STATUS,0
00EC   2???           00469         GOTO    _00214_DS_
                      00470 ;;genSkipc:3247: created from rifx:027A5DF4
                      00471 ;;/home/sdcc-builder/build/sdcc-build/orig/sdcc/src/pic14/gen.c:6461: size=3, offset=0, AOP_TYPE(res)=8
                      00472 ;       .line   151; "push_button.c"    Readings.Set_value = 35 ;
00ED   3023           00473         MOVLW   0x23
00EE   ???? ????      00474         BANKSEL _Readings
00F0   00??           00475         MOVWF   (_Readings + 4)
                      00476 ;;/home/sdcc-builder/build/sdcc-build/orig/sdcc/src/pic14/gen.c:6461: size=2, offset=1, AOP_TYPE(res)=8
00F1   01??           00477         CLRF    (_Readings + 5)
                      00478 ;;/home/sdcc-builder/build/sdcc-build/orig/sdcc/src/pic14/gen.c:6461: size=1, offset=2, AOP_TYPE(res)=8
00F2   01??           00479         CLRF    (_Readings + 6)
                      00480 ;;/home/sdcc-builder/build/sdcc-build/orig/sdcc/src/pic14/gen.c:6461: size=0, offset=3, AOP_TYPE(res)=8
00F3   01??           00481         CLRF    (_Readings + 7)
00F4                  00482 _00214_DS_
00F4   0008           00483         RETURN  
                      00484 ; exit point of _SetValue_update
                      00485 
                      00486 ;***
                      00487 ;  pBlock Stats: dbName = C
                      00488 ;***
                      00489 ;entry:  _PB_GetState   ;Function start
                      00490 ; 2 exit points
                      00491 ;has an exit
                      00492 ;functions called:
                      00493 ;   __mulchar
                      00494 ;   __mulchar
                      00495 ;5 compiler assigned registers:
                      00496 ;   r0x101E
                      00497 ;   STK00
                      00498 ;   r0x101F
                      00499 ;   r0x1020
                      00500 ;   r0x1021
                      00501 ;; Starting pCode block
00F5                  00502 _PB_GetState    ;Function start
                      00503 ; 2 exit points
                      00504 ;       .line   122; "push_button.c"    tPB_State PB_GetState(tPB pb)
00F5   ???? ????      00505         BANKSEL r0x101E
00F7   00??           00506         MOVWF   r0x101E
                      00507 ;       .line   126; "push_button.c"    ret = pb_info[pb].state;
00F8   3003           00508         MOVLW   0x03
00F9   00??           00509         MOVWF   STK00
00FA   08??           00510         MOVF    r0x101E,W
00FB   ???? ????      00511         PAGESEL __mulchar
00FD   2???           00512         CALL    __mulchar
00FE   ???? ????      00513         PAGESEL $
0100   ???? ????      00514         BANKSEL r0x101F
0102   00??           00515         MOVWF   r0x101F
0103   01??           00516         CLRF    r0x1020
0104   08??           00517         MOVF    r0x101F,W
0105   3E??           00518         ADDLW   (_pb_info + 0)
0106   00??           00519         MOVWF   r0x101E
0107   30??           00520         MOVLW   high (_pb_info + 0)
gpasm-1.4.0 #1106 (Oct  6 2014) obj\Release\p   7-19-2020  20:05:22         PAGE 11


LOC    OBJECT CODE    LINE  SOURCE TEXT
  VALUE

0108   00??           00521         MOVWF   r0x1021
0109   3000           00522         MOVLW   0x00
010A   1803           00523         BTFSC   STATUS,0
010B   0F??           00524         INCFSZ  r0x1020,W
010C   07??           00525         ADDWF   r0x1021,F
010D   3002           00526         MOVLW   0x02
010E   07??           00527         ADDWF   r0x101E,F
010F   1803           00528         BTFSC   STATUS,0
0110   0A??           00529         INCF    r0x1021,F
0111   08??           00530         MOVF    r0x101E,W
0112   1283 1303      00531         BANKSEL FSR
0114   0084           00532         MOVWF   FSR
0115   1383           00533         BCF     STATUS,7
0116   ???? ????      00534         BANKSEL r0x1021
0118   18??           00535         BTFSC   r0x1021,0
0119   1783           00536         BSF     STATUS,7
011A   1283 1303      00537         BANKSEL INDF
011C   0800           00538         MOVF    INDF,W
                      00539 ;       .line   128; "push_button.c"    return ret;
011D   ???? ????      00540         BANKSEL r0x101F
011F   00??           00541         MOVWF   r0x101F
0120   0008           00542         RETURN  
                      00543 ; exit point of _PB_GetState
                      00544 
                      00545 ;***
                      00546 ;  pBlock Stats: dbName = C
                      00547 ;***
                      00548 ;entry:  _PB_Update     ;Function start
                      00549 ; 2 exit points
                      00550 ;has an exit
                      00551 ;functions called:
                      00552 ;   __mulchar
                      00553 ;   _GPIO_GetPortPinState
                      00554 ;   _GPIO_GetPortPinState
                      00555 ;   _GPIO_GetPortPinState
                      00556 ;   _GPIO_GetPortPinState
                      00557 ;   __mulchar
                      00558 ;   _SetValue_update
                      00559 ;   __mulchar
                      00560 ;   _GPIO_GetPortPinState
                      00561 ;   _GPIO_GetPortPinState
                      00562 ;   _GPIO_GetPortPinState
                      00563 ;   _GPIO_GetPortPinState
                      00564 ;   __mulchar
                      00565 ;   _SetValue_update
                      00566 ;9 compiler assigned registers:
                      00567 ;   r0x1026
                      00568 ;   STK00
                      00569 ;   r0x1027
                      00570 ;   r0x1028
                      00571 ;   r0x1029
                      00572 ;   r0x102A
                      00573 ;   r0x102B
gpasm-1.4.0 #1106 (Oct  6 2014) obj\Release\p   7-19-2020  20:05:22         PAGE 12


LOC    OBJECT CODE    LINE  SOURCE TEXT
  VALUE

                      00574 ;   r0x102C
                      00575 ;   r0x102D
                      00576 ;; Starting pCode block
0121                  00577 _PB_Update      ;Function start
                      00578 ; 2 exit points
                      00579 ;       .line   59; "push_button.c"     for (current_button = PB_POWER; current_button <= PB_UNUSED; cur
                            rent_button++)
0121   ???? ????      00580         BANKSEL r0x1026
0123   01??           00581         CLRF    r0x1026
0124                  00582 _00155_DS_
                      00583 ;       .line   62; "push_button.c"     pb_info[current_button].samples[0] = pb_info[current_button].sam
                            ples[1];
0124   3003           00584         MOVLW   0x03
0125   00??           00585         MOVWF   STK00
0126   ???? ????      00586         BANKSEL r0x1026
0128   08??           00587         MOVF    r0x1026,W
0129   ???? ????      00588         PAGESEL __mulchar
012B   2???           00589         CALL    __mulchar
012C   ???? ????      00590         PAGESEL $
012E   ???? ????      00591         BANKSEL r0x1027
0130   00??           00592         MOVWF   r0x1027
0131   01??           00593         CLRF    r0x1028
0132   08??           00594         MOVF    r0x1027,W
0133   3E??           00595         ADDLW   (_pb_info + 0)
0134   00??           00596         MOVWF   r0x1029
0135   30??           00597         MOVLW   high (_pb_info + 0)
0136   00??           00598         MOVWF   r0x102A
0137   3000           00599         MOVLW   0x00
0138   1803           00600         BTFSC   STATUS,0
0139   0F??           00601         INCFSZ  r0x1028,W
013A   07??           00602         ADDWF   r0x102A,F
013B   08??           00603         MOVF    r0x1027,W
013C   3E??           00604         ADDLW   (_pb_info + 0)
013D   00??           00605         MOVWF   r0x1027
013E   08??           00606         MOVF    r0x1028,W
013F   1803           00607         BTFSC   STATUS,0
0140   0F??           00608         INCFSZ  r0x1028,W
0141   3E??           00609         ADDLW   high (_pb_info + 0)
0142   00??           00610         MOVWF   r0x1028
0143   0A??           00611         INCF    r0x1027,F
0144   1903           00612         BTFSC   STATUS,2
0145   0A??           00613         INCF    r0x1028,F
0146   08??           00614         MOVF    r0x1027,W
0147   1283 1303      00615         BANKSEL FSR
0149   0084           00616         MOVWF   FSR
014A   1383           00617         BCF     STATUS,7
014B   ???? ????      00618         BANKSEL r0x1028
014D   18??           00619         BTFSC   r0x1028,0
014E   1783           00620         BSF     STATUS,7
014F   1283 1303      00621         BANKSEL INDF
0151   0800           00622         MOVF    INDF,W
0152   ???? ????      00623         BANKSEL r0x102B
0154   00??           00624         MOVWF   r0x102B
gpasm-1.4.0 #1106 (Oct  6 2014) obj\Release\p   7-19-2020  20:05:22         PAGE 13


LOC    OBJECT CODE    LINE  SOURCE TEXT
  VALUE

0155   08??           00625         MOVF    r0x1029,W
0156   1283 1303      00626         BANKSEL FSR
0158   0084           00627         MOVWF   FSR
0159   1383           00628         BCF     STATUS,7
015A   ???? ????      00629         BANKSEL r0x102A
015C   18??           00630         BTFSC   r0x102A,0
015D   1783           00631         BSF     STATUS,7
015E   08??           00632         MOVF    r0x102B,W
015F   1283 1303      00633         BANKSEL INDF
0161   0080           00634         MOVWF   INDF
                      00635 ;;swapping arguments (AOP_TYPEs 1/2)
                      00636 ;;unsigned compare: left >= lit(0x4=4), size=1
                      00637 ;       .line   64; "push_button.c"     switch(current_button)
0162   3004           00638         MOVLW   0x04
0163   ???? ????      00639         BANKSEL r0x1026
0165   02??           00640         SUBWF   r0x1026,W
0166   1803           00641         BTFSC   STATUS,0
0167   2???           00642         GOTO    _00137_DS_
                      00643 ;;genSkipc:3247: created from rifx:027A5DF4
0168   30??           00644         MOVLW   HIGH(_00191_DS_)
0169   1283 1303      00645         BANKSEL PCLATH
016B   008A           00646         MOVWF   PCLATH
016C   30??           00647         MOVLW   _00191_DS_
016D   ???? ????      00648         BANKSEL r0x1026
016F   07??           00649         ADDWF   r0x1026,W
0170   1C03           00650         BTFSS   STATUS,0
0171   2???           00651         GOTO    _00001_DS_
0172   1283 1303      00652         BANKSEL PCLATH
0174   0A8A           00653         INCF    PCLATH,F
0175                  00654 _00001_DS_
0175   0082           00655         MOVWF   PCL
0176                  00656 _00191_DS_
0176   2???           00657         GOTO    _00132_DS_
0177   2???           00658         GOTO    _00133_DS_
0178   2???           00659         GOTO    _00134_DS_
0179   2???           00660         GOTO    _00135_DS_
017A                  00661 _00132_DS_
                      00662 ;       .line   67; "push_button.c"     pb_info[current_button].samples[1] = GPIO_GetPortPinState(PORT_B
                            , 0);
017A   3000           00663         MOVLW   0x00
017B   00??           00664         MOVWF   STK00
017C   3001           00665         MOVLW   0x01
017D   ???? ????      00666         PAGESEL _GPIO_GetPortPinState
017F   2???           00667         CALL    _GPIO_GetPortPinState
0180   ???? ????      00668         PAGESEL $
0182   ???? ????      00669         BANKSEL r0x1029
0184   00??           00670         MOVWF   r0x1029
0185   08??           00671         MOVF    r0x1027,W
0186   1283 1303      00672         BANKSEL FSR
0188   0084           00673         MOVWF   FSR
0189   1383           00674         BCF     STATUS,7
018A   ???? ????      00675         BANKSEL r0x1028
018C   18??           00676         BTFSC   r0x1028,0
gpasm-1.4.0 #1106 (Oct  6 2014) obj\Release\p   7-19-2020  20:05:22         PAGE 14


LOC    OBJECT CODE    LINE  SOURCE TEXT
  VALUE

018D   1783           00677         BSF     STATUS,7
018E   08??           00678         MOVF    r0x1029,W
018F   1283 1303      00679         BANKSEL INDF
0191   0080           00680         MOVWF   INDF
                      00681 ;       .line   68; "push_button.c"     break;
0192   2???           00682         GOTO    _00137_DS_
0193                  00683 _00133_DS_
                      00684 ;       .line   70; "push_button.c"     pb_info[current_button].samples[1] = GPIO_GetPortPinState(PORT_B
                            , 1);
0193   3001           00685         MOVLW   0x01
0194   00??           00686         MOVWF   STK00
0195   3001           00687         MOVLW   0x01
0196   ???? ????      00688         PAGESEL _GPIO_GetPortPinState
0198   2???           00689         CALL    _GPIO_GetPortPinState
0199   ???? ????      00690         PAGESEL $
019B   ???? ????      00691         BANKSEL r0x1029
019D   00??           00692         MOVWF   r0x1029
019E   08??           00693         MOVF    r0x1027,W
019F   1283 1303      00694         BANKSEL FSR
01A1   0084           00695         MOVWF   FSR
01A2   1383           00696         BCF     STATUS,7
01A3   ???? ????      00697         BANKSEL r0x1028
01A5   18??           00698         BTFSC   r0x1028,0
01A6   1783           00699         BSF     STATUS,7
01A7   08??           00700         MOVF    r0x1029,W
01A8   1283 1303      00701         BANKSEL INDF
01AA   0080           00702         MOVWF   INDF
                      00703 ;       .line   71; "push_button.c"     break;
01AB   2???           00704         GOTO    _00137_DS_
01AC                  00705 _00134_DS_
                      00706 ;       .line   73; "push_button.c"     pb_info[current_button].samples[1] = GPIO_GetPortPinState(PORT_B
                            , 2);
01AC   3002           00707         MOVLW   0x02
01AD   00??           00708         MOVWF   STK00
01AE   3001           00709         MOVLW   0x01
01AF   ???? ????      00710         PAGESEL _GPIO_GetPortPinState
01B1   2???           00711         CALL    _GPIO_GetPortPinState
01B2   ???? ????      00712         PAGESEL $
01B4   ???? ????      00713         BANKSEL r0x1029
01B6   00??           00714         MOVWF   r0x1029
01B7   08??           00715         MOVF    r0x1027,W
01B8   1283 1303      00716         BANKSEL FSR
01BA   0084           00717         MOVWF   FSR
01BB   1383           00718         BCF     STATUS,7
01BC   ???? ????      00719         BANKSEL r0x1028
01BE   18??           00720         BTFSC   r0x1028,0
01BF   1783           00721         BSF     STATUS,7
01C0   08??           00722         MOVF    r0x1029,W
01C1   1283 1303      00723         BANKSEL INDF
01C3   0080           00724         MOVWF   INDF
                      00725 ;       .line   74; "push_button.c"     break;
01C4   2???           00726         GOTO    _00137_DS_
01C5                  00727 _00135_DS_
gpasm-1.4.0 #1106 (Oct  6 2014) obj\Release\p   7-19-2020  20:05:22         PAGE 15


LOC    OBJECT CODE    LINE  SOURCE TEXT
  VALUE

                      00728 ;       .line   76; "push_button.c"     pb_info[current_button].samples[1] = GPIO_GetPortPinState(PORT_B
                            , 3);
01C5   3003           00729         MOVLW   0x03
01C6   00??           00730         MOVWF   STK00
01C7   3001           00731         MOVLW   0x01
01C8   ???? ????      00732         PAGESEL _GPIO_GetPortPinState
01CA   2???           00733         CALL    _GPIO_GetPortPinState
01CB   ???? ????      00734         PAGESEL $
01CD   ???? ????      00735         BANKSEL r0x1029
01CF   00??           00736         MOVWF   r0x1029
01D0   08??           00737         MOVF    r0x1027,W
01D1   1283 1303      00738         BANKSEL FSR
01D3   0084           00739         MOVWF   FSR
01D4   1383           00740         BCF     STATUS,7
01D5   ???? ????      00741         BANKSEL r0x1028
01D7   18??           00742         BTFSC   r0x1028,0
01D8   1783           00743         BSF     STATUS,7
01D9   08??           00744         MOVF    r0x1029,W
01DA   1283 1303      00745         BANKSEL INDF
01DC   0080           00746         MOVWF   INDF
01DD                  00747 _00137_DS_
                      00748 ;       .line   84; "push_button.c"     switch(pb_info[current_button].state)
01DD   3003           00749         MOVLW   0x03
01DE   00??           00750         MOVWF   STK00
01DF   ???? ????      00751         BANKSEL r0x1026
01E1   08??           00752         MOVF    r0x1026,W
01E2   ???? ????      00753         PAGESEL __mulchar
01E4   2???           00754         CALL    __mulchar
01E5   ???? ????      00755         PAGESEL $
01E7   ???? ????      00756         BANKSEL r0x1027
01E9   00??           00757         MOVWF   r0x1027
01EA   01??           00758         CLRF    r0x1028
01EB   08??           00759         MOVF    r0x1027,W
01EC   3E??           00760         ADDLW   (_pb_info + 0)
01ED   00??           00761         MOVWF   r0x1027
01EE   3000           00762         MOVLW   0x00
01EF   1803           00763         BTFSC   STATUS,0
01F0   0F??           00764         INCFSZ  r0x1028,W
01F1   3E??           00765         ADDLW   high (_pb_info + 0)
01F2   00??           00766         MOVWF   r0x1028
01F3   3002           00767         MOVLW   0x02
01F4   07??           00768         ADDWF   r0x1027,W
01F5   00??           00769         MOVWF   r0x1029
01F6   01??           00770         CLRF    r0x102A
01F7   0D??           00771         RLF     r0x102A,F
01F8   08??           00772         MOVF    r0x1028,W
01F9   07??           00773         ADDWF   r0x102A,F
01FA   08??           00774         MOVF    r0x1029,W
01FB   1283 1303      00775         BANKSEL FSR
01FD   0084           00776         MOVWF   FSR
01FE   1383           00777         BCF     STATUS,7
01FF   ???? ????      00778         BANKSEL r0x102A
0201   18??           00779         BTFSC   r0x102A,0
gpasm-1.4.0 #1106 (Oct  6 2014) obj\Release\p   7-19-2020  20:05:22         PAGE 16


LOC    OBJECT CODE    LINE  SOURCE TEXT
  VALUE

0202   1783           00780         BSF     STATUS,7
0203   1283 1303      00781         BANKSEL INDF
0205   0800           00782         MOVF    INDF,W
0206   ???? ????      00783         BANKSEL r0x102B
0208   00??           00784         MOVWF   r0x102B
                      00785 ;;swapping arguments (AOP_TYPEs 1/2)
                      00786 ;;unsigned compare: left >= lit(0x4=4), size=1
0209   3004           00787         MOVLW   0x04
020A   02??           00788         SUBWF   r0x102B,W
020B   1803           00789         BTFSC   STATUS,0
020C   2???           00790         GOTO    _00156_DS_
                      00791 ;;genSkipc:3247: created from rifx:027A5DF4
020D   30??           00792         MOVLW   HIGH(_00193_DS_)
020E   1283 1303      00793         BANKSEL PCLATH
0210   008A           00794         MOVWF   PCLATH
0211   30??           00795         MOVLW   _00193_DS_
0212   ???? ????      00796         BANKSEL r0x102B
0214   07??           00797         ADDWF   r0x102B,W
0215   1C03           00798         BTFSS   STATUS,0
0216   2???           00799         GOTO    _00002_DS_
0217   1283 1303      00800         BANKSEL PCLATH
0219   0A8A           00801         INCF    PCLATH,F
021A                  00802 _00002_DS_
021A   0082           00803         MOVWF   PCL
021B                  00804 _00193_DS_
021B   2???           00805         GOTO    _00138_DS_
021C   2???           00806         GOTO    _00142_DS_
021D   2???           00807         GOTO    _00145_DS_
021E   2???           00808         GOTO    _00149_DS_
021F                  00809 _00138_DS_
                      00810 ;       .line   87; "push_button.c"     if((pb_info[current_button].samples[0] == PB_PRESSED_VOLTAGE) &&
021F   ???? ????      00811         BANKSEL r0x1027
0221   08??           00812         MOVF    r0x1027,W
0222   1283 1303      00813         BANKSEL FSR
0224   0084           00814         MOVWF   FSR
0225   1383           00815         BCF     STATUS,7
0226   ???? ????      00816         BANKSEL r0x1028
0228   18??           00817         BTFSC   r0x1028,0
0229   1783           00818         BSF     STATUS,7
022A   1283 1303      00819         BANKSEL INDF
022C   0800           00820         MOVF    INDF,W
022D   ???? ????      00821         BANKSEL r0x102B
022F   00??           00822         MOVWF   r0x102B
0230   08??           00823         MOVF    r0x102B,W
0231   1D03           00824         BTFSS   STATUS,2
0232   2???           00825         GOTO    _00156_DS_
                      00826 ;       .line   88; "push_button.c"     (pb_info[current_button].samples[1] == PB_PRESSED_VOLTAGE))
0233   3001           00827         MOVLW   0x01
0234   07??           00828         ADDWF   r0x1027,W
0235   00??           00829         MOVWF   r0x102B
0236   01??           00830         CLRF    r0x102C
0237   0D??           00831         RLF     r0x102C,F
0238   08??           00832         MOVF    r0x1028,W
gpasm-1.4.0 #1106 (Oct  6 2014) obj\Release\p   7-19-2020  20:05:22         PAGE 17


LOC    OBJECT CODE    LINE  SOURCE TEXT
  VALUE

0239   07??           00833         ADDWF   r0x102C,F
023A   08??           00834         MOVF    r0x102B,W
023B   1283 1303      00835         BANKSEL FSR
023D   0084           00836         MOVWF   FSR
023E   1383           00837         BCF     STATUS,7
023F   ???? ????      00838         BANKSEL r0x102C
0241   18??           00839         BTFSC   r0x102C,0
0242   1783           00840         BSF     STATUS,7
0243   1283 1303      00841         BANKSEL INDF
0245   0800           00842         MOVF    INDF,W
0246   ???? ????      00843         BANKSEL r0x102D
0248   00??           00844         MOVWF   r0x102D
0249   08??           00845         MOVF    r0x102D,W
024A   1D03           00846         BTFSS   STATUS,2
024B   2???           00847         GOTO    _00156_DS_
                      00848 ;       .line   90; "push_button.c"     pb_info[current_button].state = PB_PRE_PRESSED;
024C   08??           00849         MOVF    r0x1029,W
024D   1283 1303      00850         BANKSEL FSR
024F   0084           00851         MOVWF   FSR
0250   1383           00852         BCF     STATUS,7
0251   ???? ????      00853         BANKSEL r0x102A
0253   18??           00854         BTFSC   r0x102A,0
0254   1783           00855         BSF     STATUS,7
0255   3001           00856         MOVLW   0x01
0256   1283 1303      00857         BANKSEL INDF
0258   0080           00858         MOVWF   INDF
                      00859 ;       .line   92; "push_button.c"     break;
0259   2???           00860         GOTO    _00156_DS_
025A                  00861 _00142_DS_
                      00862 ;       .line   94; "push_button.c"     if(pb_info[current_button].samples[1] == PB_PRESSED_VOLTAGE)
025A   3001           00863         MOVLW   0x01
025B   ???? ????      00864         BANKSEL r0x1027
025D   07??           00865         ADDWF   r0x1027,W
025E   00??           00866         MOVWF   r0x102B
025F   01??           00867         CLRF    r0x102C
0260   0D??           00868         RLF     r0x102C,F
0261   08??           00869         MOVF    r0x1028,W
0262   07??           00870         ADDWF   r0x102C,F
0263   08??           00871         MOVF    r0x102B,W
0264   1283 1303      00872         BANKSEL FSR
0266   0084           00873         MOVWF   FSR
0267   1383           00874         BCF     STATUS,7
0268   ???? ????      00875         BANKSEL r0x102C
026A   18??           00876         BTFSC   r0x102C,0
026B   1783           00877         BSF     STATUS,7
026C   1283 1303      00878         BANKSEL INDF
026E   0800           00879         MOVF    INDF,W
026F   ???? ????      00880         BANKSEL r0x102D
0271   00??           00881         MOVWF   r0x102D
0272   08??           00882         MOVF    r0x102D,W
0273   1D03           00883         BTFSS   STATUS,2
0274   2???           00884         GOTO    _00156_DS_
                      00885 ;       .line   96; "push_button.c"     pb_info[current_button].state = PB_PRESSED;
gpasm-1.4.0 #1106 (Oct  6 2014) obj\Release\p   7-19-2020  20:05:22         PAGE 18


LOC    OBJECT CODE    LINE  SOURCE TEXT
  VALUE

0275   08??           00886         MOVF    r0x1029,W
0276   1283 1303      00887         BANKSEL FSR
0278   0084           00888         MOVWF   FSR
0279   1383           00889         BCF     STATUS,7
027A   ???? ????      00890         BANKSEL r0x102A
027C   18??           00891         BTFSC   r0x102A,0
027D   1783           00892         BSF     STATUS,7
027E   3002           00893         MOVLW   0x02
027F   1283 1303      00894         BANKSEL INDF
0281   0080           00895         MOVWF   INDF
                      00896 ;       .line   98; "push_button.c"     break;
0282   2???           00897         GOTO    _00156_DS_
0283                  00898 _00145_DS_
                      00899 ;       .line   100; "push_button.c"    if((pb_info[current_button].samples[0] == PB_RELEASED_VOLTAGE) &
                            &
0283   ???? ????      00900         BANKSEL r0x1027
0285   08??           00901         MOVF    r0x1027,W
0286   1283 1303      00902         BANKSEL FSR
0288   0084           00903         MOVWF   FSR
0289   1383           00904         BCF     STATUS,7
028A   ???? ????      00905         BANKSEL r0x1028
028C   18??           00906         BTFSC   r0x1028,0
028D   1783           00907         BSF     STATUS,7
028E   1283 1303      00908         BANKSEL INDF
0290   0800           00909         MOVF    INDF,W
0291   ???? ????      00910         BANKSEL r0x102B
0293   00??           00911         MOVWF   r0x102B
0294   3A01           00912         XORLW   0x01
0295   1D03           00913         BTFSS   STATUS,2
0296   2???           00914         GOTO    _00156_DS_
                      00915 ;       .line   101; "push_button.c"    (pb_info[current_button].samples[1] == PB_RELEASED_VOLTAGE))
0297   3001           00916         MOVLW   0x01
0298   07??           00917         ADDWF   r0x1027,W
0299   00??           00918         MOVWF   r0x102B
029A   01??           00919         CLRF    r0x102C
029B   0D??           00920         RLF     r0x102C,F
029C   08??           00921         MOVF    r0x1028,W
029D   07??           00922         ADDWF   r0x102C,F
029E   08??           00923         MOVF    r0x102B,W
029F   1283 1303      00924         BANKSEL FSR
02A1   0084           00925         MOVWF   FSR
02A2   1383           00926         BCF     STATUS,7
02A3   ???? ????      00927         BANKSEL r0x102C
02A5   18??           00928         BTFSC   r0x102C,0
02A6   1783           00929         BSF     STATUS,7
02A7   1283 1303      00930         BANKSEL INDF
02A9   0800           00931         MOVF    INDF,W
02AA   ???? ????      00932         BANKSEL r0x102D
02AC   00??           00933         MOVWF   r0x102D
02AD   3A01           00934         XORLW   0x01
02AE   1D03           00935         BTFSS   STATUS,2
02AF   2???           00936         GOTO    _00156_DS_
                      00937 ;       .line   103; "push_button.c"    pb_info[current_button].state = PB_PRE_RELEASED;
gpasm-1.4.0 #1106 (Oct  6 2014) obj\Release\p   7-19-2020  20:05:22         PAGE 19


LOC    OBJECT CODE    LINE  SOURCE TEXT
  VALUE

02B0   08??           00938         MOVF    r0x1029,W
02B1   1283 1303      00939         BANKSEL FSR
02B3   0084           00940         MOVWF   FSR
02B4   1383           00941         BCF     STATUS,7
02B5   ???? ????      00942         BANKSEL r0x102A
02B7   18??           00943         BTFSC   r0x102A,0
02B8   1783           00944         BSF     STATUS,7
02B9   3003           00945         MOVLW   0x03
02BA   1283 1303      00946         BANKSEL INDF
02BC   0080           00947         MOVWF   INDF
                      00948 ;       .line   105; "push_button.c"    break;
02BD   2???           00949         GOTO    _00156_DS_
02BE                  00950 _00149_DS_
                      00951 ;       .line   107; "push_button.c"    if(pb_info[current_button].samples[1] == PB_RELEASED_VOLTAGE)
02BE   ???? ????      00952         BANKSEL r0x1027
02C0   0A??           00953         INCF    r0x1027,F
02C1   1903           00954         BTFSC   STATUS,2
02C2   0A??           00955         INCF    r0x1028,F
02C3   08??           00956         MOVF    r0x1027,W
02C4   1283 1303      00957         BANKSEL FSR
02C6   0084           00958         MOVWF   FSR
02C7   1383           00959         BCF     STATUS,7
02C8   ???? ????      00960         BANKSEL r0x1028
02CA   18??           00961         BTFSC   r0x1028,0
02CB   1783           00962         BSF     STATUS,7
02CC   1283 1303      00963         BANKSEL INDF
02CE   0800           00964         MOVF    INDF,W
02CF   ???? ????      00965         BANKSEL r0x102B
02D1   00??           00966         MOVWF   r0x102B
02D2   3A01           00967         XORLW   0x01
02D3   1D03           00968         BTFSS   STATUS,2
02D4   2???           00969         GOTO    _00156_DS_
                      00970 ;       .line   109; "push_button.c"    pb_info[current_button].state = PB_RELEASED;
02D5   08??           00971         MOVF    r0x1029,W
02D6   1283 1303      00972         BANKSEL FSR
02D8   0084           00973         MOVWF   FSR
02D9   1383           00974         BCF     STATUS,7
02DA   ???? ????      00975         BANKSEL r0x102A
02DC   18??           00976         BTFSC   r0x102A,0
02DD   1783           00977         BSF     STATUS,7
02DE   3000           00978         MOVLW   0x00
02DF   1283 1303      00979         BANKSEL INDF
02E1   0080           00980         MOVWF   INDF
02E2                  00981 _00156_DS_
                      00982 ;       .line   59; "push_button.c"     for (current_button = PB_POWER; current_button <= PB_UNUSED; cur
                            rent_button++)
02E2   ???? ????      00983         BANKSEL r0x1026
02E4   0A??           00984         INCF    r0x1026,F
                      00985 ;;swapping arguments (AOP_TYPEs 1/2)
                      00986 ;;unsigned compare: left >= lit(0x4=4), size=1
02E5   3004           00987         MOVLW   0x04
02E6   02??           00988         SUBWF   r0x1026,W
02E7   1C03           00989         BTFSS   STATUS,0
gpasm-1.4.0 #1106 (Oct  6 2014) obj\Release\p   7-19-2020  20:05:22         PAGE 20


LOC    OBJECT CODE    LINE  SOURCE TEXT
  VALUE

02E8   2???           00990         GOTO    _00155_DS_
                      00991 ;;genSkipc:3247: created from rifx:027A5DF4
                      00992 ;       .line   119; "push_button.c"    SetValue_update(); //fn to check for the push buttons to decreme
                            nt and increment the user set value
02E9   2???           00993         CALL    _SetValue_update
02EA   0008           00994         RETURN  
                      00995 ; exit point of _PB_Update
                      00996 
                      00997 ;***
                      00998 ;  pBlock Stats: dbName = C
                      00999 ;***
                      01000 ;entry:  _PB_Init       ;Function start
                      01001 ; 2 exit points
                      01002 ;has an exit
                      01003 ;functions called:
                      01004 ;   _GPIO_InitPortPin
                      01005 ;   _GPIO_InitPortPin
                      01006 ;   _GPIO_InitPortPin
                      01007 ;   _GPIO_InitPortPin
                      01008 ;   __mulchar
                      01009 ;   _GPIO_InitPortPin
                      01010 ;   _GPIO_InitPortPin
                      01011 ;   _GPIO_InitPortPin
                      01012 ;   _GPIO_InitPortPin
                      01013 ;   __mulchar
                      01014 ;7 compiler assigned registers:
                      01015 ;   r0x102E
                      01016 ;   STK00
                      01017 ;   r0x102F
                      01018 ;   STK01
                      01019 ;   r0x1030
                      01020 ;   r0x1031
                      01021 ;   r0x1032
                      01022 ;; Starting pCode block
02EB                  01023 _PB_Init        ;Function start
                      01024 ; 2 exit points
                      01025 ;       .line   15; "push_button.c"     void PB_Init(tPB pb, tPB_State initial_state)
02EB   ???? ????      01026         BANKSEL r0x102E
02ED   00??           01027         MOVWF   r0x102E
02EE   08??           01028         MOVF    STK00,W
02EF   00??           01029         MOVWF   r0x102F
                      01030 ;;swapping arguments (AOP_TYPEs 1/2)
                      01031 ;;unsigned compare: left >= lit(0x4=4), size=1
                      01032 ;       .line   18; "push_button.c"     switch(pb)
02F0   3004           01033         MOVLW   0x04
02F1   02??           01034         SUBWF   r0x102E,W
02F2   1803           01035         BTFSC   STATUS,0
02F3   2???           01036         GOTO    _00110_DS_
                      01037 ;;genSkipc:3247: created from rifx:027A5DF4
02F4   30??           01038         MOVLW   HIGH(_00125_DS_)
02F5   1283 1303      01039         BANKSEL PCLATH
02F7   008A           01040         MOVWF   PCLATH
02F8   30??           01041         MOVLW   _00125_DS_
gpasm-1.4.0 #1106 (Oct  6 2014) obj\Release\p   7-19-2020  20:05:22         PAGE 21


LOC    OBJECT CODE    LINE  SOURCE TEXT
  VALUE

02F9   ???? ????      01042         BANKSEL r0x102E
02FB   07??           01043         ADDWF   r0x102E,W
02FC   1C03           01044         BTFSS   STATUS,0
02FD   2???           01045         GOTO    _00003_DS_
02FE   1283 1303      01046         BANKSEL PCLATH
0300   0A8A           01047         INCF    PCLATH,F
0301                  01048 _00003_DS_
0301   0082           01049         MOVWF   PCL
0302                  01050 _00125_DS_
0302   2???           01051         GOTO    _00105_DS_
0303   2???           01052         GOTO    _00106_DS_
0304   2???           01053         GOTO    _00107_DS_
0305   2???           01054         GOTO    _00108_DS_
0306                  01055 _00105_DS_
                      01056 ;       .line   21; "push_button.c"     GPIO_InitPortPin(PORT_B, 0,GPIO_IN);
0306   3001           01057         MOVLW   0x01
0307   00??           01058         MOVWF   STK01
0308   3000           01059         MOVLW   0x00
0309   00??           01060         MOVWF   STK00
030A   3001           01061         MOVLW   0x01
030B   ???? ????      01062         PAGESEL _GPIO_InitPortPin
030D   2???           01063         CALL    _GPIO_InitPortPin
030E   ???? ????      01064         PAGESEL $
                      01065 ;       .line   22; "push_button.c"     break;
0310   2???           01066         GOTO    _00110_DS_
0311                  01067 _00106_DS_
                      01068 ;       .line   24; "push_button.c"     GPIO_InitPortPin(PORT_B, 1,GPIO_IN);
0311   3001           01069         MOVLW   0x01
0312   00??           01070         MOVWF   STK01
0313   3001           01071         MOVLW   0x01
0314   00??           01072         MOVWF   STK00
0315   3001           01073         MOVLW   0x01
0316   ???? ????      01074         PAGESEL _GPIO_InitPortPin
0318   2???           01075         CALL    _GPIO_InitPortPin
0319   ???? ????      01076         PAGESEL $
                      01077 ;       .line   25; "push_button.c"     break;
031B   2???           01078         GOTO    _00110_DS_
031C                  01079 _00107_DS_
                      01080 ;       .line   27; "push_button.c"     GPIO_InitPortPin(PORT_B, 2,GPIO_IN);
031C   3001           01081         MOVLW   0x01
031D   00??           01082         MOVWF   STK01
031E   3002           01083         MOVLW   0x02
031F   00??           01084         MOVWF   STK00
0320   3001           01085         MOVLW   0x01
0321   ???? ????      01086         PAGESEL _GPIO_InitPortPin
0323   2???           01087         CALL    _GPIO_InitPortPin
0324   ???? ????      01088         PAGESEL $
                      01089 ;       .line   28; "push_button.c"     break;
0326   2???           01090         GOTO    _00110_DS_
0327                  01091 _00108_DS_
                      01092 ;       .line   30; "push_button.c"     GPIO_InitPortPin(PORT_B, 3,GPIO_IN);
0327   3001           01093         MOVLW   0x01
0328   00??           01094         MOVWF   STK01
gpasm-1.4.0 #1106 (Oct  6 2014) obj\Release\p   7-19-2020  20:05:22         PAGE 22


LOC    OBJECT CODE    LINE  SOURCE TEXT
  VALUE

0329   3003           01095         MOVLW   0x03
032A   00??           01096         MOVWF   STK00
032B   3001           01097         MOVLW   0x01
032C   ???? ????      01098         PAGESEL _GPIO_InitPortPin
032E   2???           01099         CALL    _GPIO_InitPortPin
032F   ???? ????      01100         PAGESEL $
0331                  01101 _00110_DS_
                      01102 ;       .line   38; "push_button.c"     pb_info[pb].state = initial_state;
0331   3003           01103         MOVLW   0x03
0332   00??           01104         MOVWF   STK00
0333   ???? ????      01105         BANKSEL r0x102E
0335   08??           01106         MOVF    r0x102E,W
0336   ???? ????      01107         PAGESEL __mulchar
0338   2???           01108         CALL    __mulchar
0339   ???? ????      01109         PAGESEL $
033B   ???? ????      01110         BANKSEL r0x1030
033D   00??           01111         MOVWF   r0x1030
033E   01??           01112         CLRF    r0x1031
033F   08??           01113         MOVF    r0x1030,W
0340   3E??           01114         ADDLW   (_pb_info + 0)
0341   00??           01115         MOVWF   r0x1030
0342   30??           01116         MOVLW   high (_pb_info + 0)
0343   00??           01117         MOVWF   r0x102E
0344   3000           01118         MOVLW   0x00
0345   1803           01119         BTFSC   STATUS,0
0346   0F??           01120         INCFSZ  r0x1031,W
0347   07??           01121         ADDWF   r0x102E,F
0348   3002           01122         MOVLW   0x02
0349   07??           01123         ADDWF   r0x1030,W
034A   00??           01124         MOVWF   r0x1031
034B   01??           01125         CLRF    r0x1032
034C   0D??           01126         RLF     r0x1032,F
034D   08??           01127         MOVF    r0x102E,W
034E   07??           01128         ADDWF   r0x1032,F
034F   08??           01129         MOVF    r0x1031,W
0350   1283 1303      01130         BANKSEL FSR
0352   0084           01131         MOVWF   FSR
0353   1383           01132         BCF     STATUS,7
0354   ???? ????      01133         BANKSEL r0x1032
0356   18??           01134         BTFSC   r0x1032,0
0357   1783           01135         BSF     STATUS,7
0358   08??           01136         MOVF    r0x102F,W
0359   1283 1303      01137         BANKSEL INDF
035B   0080           01138         MOVWF   INDF
                      01139 ;;swapping arguments (AOP_TYPEs 1/2)
                      01140 ;;unsigned compare: left >= lit(0x4=4), size=1
                      01141 ;       .line   41; "push_button.c"     switch (initial_state)
035C   3004           01142         MOVLW   0x04
035D   ???? ????      01143         BANKSEL r0x102F
035F   02??           01144         SUBWF   r0x102F,W
0360   1803           01145         BTFSC   STATUS,0
0361   2???           01146         GOTO    _00116_DS_
                      01147 ;;genSkipc:3247: created from rifx:027A5DF4
gpasm-1.4.0 #1106 (Oct  6 2014) obj\Release\p   7-19-2020  20:05:22         PAGE 23


LOC    OBJECT CODE    LINE  SOURCE TEXT
  VALUE

0362   30??           01148         MOVLW   HIGH(_00127_DS_)
0363   1283 1303      01149         BANKSEL PCLATH
0365   008A           01150         MOVWF   PCLATH
0366   30??           01151         MOVLW   _00127_DS_
0367   ???? ????      01152         BANKSEL r0x102F
0369   07??           01153         ADDWF   r0x102F,W
036A   1C03           01154         BTFSS   STATUS,0
036B   2???           01155         GOTO    _00004_DS_
036C   1283 1303      01156         BANKSEL PCLATH
036E   0A8A           01157         INCF    PCLATH,F
036F                  01158 _00004_DS_
036F   0082           01159         MOVWF   PCL
0370                  01160 _00127_DS_
0370   2???           01161         GOTO    _00112_DS_
0371   2???           01162         GOTO    _00114_DS_
0372   2???           01163         GOTO    _00114_DS_
0373   2???           01164         GOTO    _00112_DS_
0374                  01165 _00112_DS_
                      01166 ;       .line   45; "push_button.c"     pb_info[pb].samples[0] = PB_RELEASED_VOLTAGE;
0374   ???? ????      01167         BANKSEL r0x1030
0376   08??           01168         MOVF    r0x1030,W
0377   1283 1303      01169         BANKSEL FSR
0379   0084           01170         MOVWF   FSR
037A   1383           01171         BCF     STATUS,7
037B   ???? ????      01172         BANKSEL r0x102E
037D   18??           01173         BTFSC   r0x102E,0
037E   1783           01174         BSF     STATUS,7
037F   3001           01175         MOVLW   0x01
0380   1283 1303      01176         BANKSEL INDF
0382   0080           01177         MOVWF   INDF
                      01178 ;       .line   46; "push_button.c"     pb_info[pb].samples[1] = PB_RELEASED_VOLTAGE;
0383   3001           01179         MOVLW   0x01
0384   ???? ????      01180         BANKSEL r0x1030
0386   07??           01181         ADDWF   r0x1030,W
0387   00??           01182         MOVWF   r0x102F
0388   01??           01183         CLRF    r0x1031
0389   0D??           01184         RLF     r0x1031,F
038A   08??           01185         MOVF    r0x102E,W
038B   07??           01186         ADDWF   r0x1031,F
038C   08??           01187         MOVF    r0x102F,W
038D   1283 1303      01188         BANKSEL FSR
038F   0084           01189         MOVWF   FSR
0390   1383           01190         BCF     STATUS,7
0391   ???? ????      01191         BANKSEL r0x1031
0393   18??           01192         BTFSC   r0x1031,0
0394   1783           01193         BSF     STATUS,7
0395   3001           01194         MOVLW   0x01
0396   1283 1303      01195         BANKSEL INDF
0398   0080           01196         MOVWF   INDF
                      01197 ;       .line   47; "push_button.c"     break;
0399   2???           01198         GOTO    _00116_DS_
039A                  01199 _00114_DS_
                      01200 ;       .line   50; "push_button.c"     pb_info[pb].samples[0] = PB_PRESSED_VOLTAGE;
gpasm-1.4.0 #1106 (Oct  6 2014) obj\Release\p   7-19-2020  20:05:22         PAGE 24


LOC    OBJECT CODE    LINE  SOURCE TEXT
  VALUE

039A   ???? ????      01201         BANKSEL r0x1030
039C   08??           01202         MOVF    r0x1030,W
039D   1283 1303      01203         BANKSEL FSR
039F   0084           01204         MOVWF   FSR
03A0   1383           01205         BCF     STATUS,7
03A1   ???? ????      01206         BANKSEL r0x102E
03A3   18??           01207         BTFSC   r0x102E,0
03A4   1783           01208         BSF     STATUS,7
03A5   3000           01209         MOVLW   0x00
03A6   1283 1303      01210         BANKSEL INDF
03A8   0080           01211         MOVWF   INDF
                      01212 ;       .line   51; "push_button.c"     pb_info[pb].samples[1] = PB_PRESSED_VOLTAGE;
03A9   ???? ????      01213         BANKSEL r0x1030
03AB   0A??           01214         INCF    r0x1030,F
03AC   1903           01215         BTFSC   STATUS,2
03AD   0A??           01216         INCF    r0x102E,F
03AE   08??           01217         MOVF    r0x1030,W
03AF   1283 1303      01218         BANKSEL FSR
03B1   0084           01219         MOVWF   FSR
03B2   1383           01220         BCF     STATUS,7
03B3   ???? ????      01221         BANKSEL r0x102E
03B5   18??           01222         BTFSC   r0x102E,0
03B6   1783           01223         BSF     STATUS,7
03B7   3000           01224         MOVLW   0x00
03B8   1283 1303      01225         BANKSEL INDF
03BA   0080           01226         MOVWF   INDF
03BB                  01227 _00116_DS_
                      01228 ;       .line   53; "push_button.c"     }
03BB   0008           01229         RETURN  
                      01230 ; exit point of _PB_Init
                      01231 
                      01232 
                      01233 ;       code size estimation:
                      01234 ;         584+  186 =   770 instructions ( 1912 byte)
                      01235 
                      01236         end
gpasm-1.4.0 #1106 (Oct  6 2014) obj\Release\p   7-19-2020  20:05:22         PAGE 25


SYMBOL TABLE
  LABEL                             VALUE

ACKDT                             00000005
ACKEN                             00000004
ACKSTAT                           00000006
ADCON0                            0000001F
ADCON1                            0000009F
ADCS0                             00000006
ADCS1                             00000007
ADCS2                             00000006
ADDEN                             00000003
ADFM                              00000007
ADIE                              00000006
ADIF                              00000006
ADON                              00000000
ADRESH                            0000001E
ADRESL                            0000009E
BCLIE                             00000003
BCLIF                             00000003
BF                                00000000
BRGH                              00000002
C                                 00000000
C1INV                             00000004
C1OUT                             00000006
C2INV                             00000005
C2OUT                             00000007
CCP1CON                           00000017
CCP1IE                            00000002
CCP1IF                            00000002
CCP1M0                            00000000
CCP1M1                            00000001
CCP1M2                            00000002
CCP1M3                            00000003
CCP1X                             00000005
CCP1Y                             00000004
CCP2CON                           0000001D
CCP2IE                            00000000
CCP2IF                            00000000
CCP2M0                            00000000
CCP2M1                            00000001
CCP2M2                            00000002
CCP2M3                            00000003
CCP2X                             00000005
CCP2Y                             00000004
CCPR1                             00000015
CCPR1H                            00000016
CCPR1L                            00000015
CCPR2                             0000001B
CCPR2H                            0000001C
CCPR2L                            0000001B
CHS0                              00000003
CHS1                              00000004
CHS2                              00000005
CIS                               00000003
CKE                               00000006
gpasm-1.4.0 #1106 (Oct  6 2014) obj\Release\p   7-19-2020  20:05:22         PAGE 26


SYMBOL TABLE
  LABEL                             VALUE 

CKP                               00000004
CM0                               00000000
CM1                               00000001
CM2                               00000002
CMCON                             0000009C
CMIE                              00000006
CMIF                              00000006
CREN                              00000004
CSRC                              00000007
CVR0                              00000000
CVR1                              00000001
CVR2                              00000002
CVR3                              00000003
CVRCON                            0000009D
CVREN                             00000007
CVROE                             00000006
CVRR                              00000005
D                                 00000005
DATA_ADDRESS                      00000005
DC                                00000001
D_A                               00000005
D_NOT_A                           00000005
EEADR                             0000010D
EEADRH                            0000010F
EECON1                            0000018C
EECON2                            0000018D
EEDATA                            0000010C
EEDATH                            0000010E
EEIE                              00000004
EEIF                              00000004
EEPGD                             00000007
F                                 00000001
FERR                              00000002
FSR                               00000004
GCEN                              00000007
GIE                               00000007
GO                                00000002
GO_DONE                           00000002
GO_NOT_DONE                       00000002
I2C_DATA                          00000005
I2C_READ                          00000002
I2C_START                         00000003
I2C_STOP                          00000004
IBF                               00000007
IBOV                              00000005
INDF                              00000000
INTCON                            0000000B
INTE                              00000004
INTEDG                            00000006
INTF                              00000001
IRP                               00000007
NOT_A                             00000005
NOT_ADDRESS                       00000005
gpasm-1.4.0 #1106 (Oct  6 2014) obj\Release\p   7-19-2020  20:05:22         PAGE 27


SYMBOL TABLE
  LABEL                             VALUE 

NOT_BO                            00000000
NOT_BOR                           00000000
NOT_DONE                          00000002
NOT_PD                            00000003
NOT_POR                           00000001
NOT_RBPU                          00000007
NOT_RC8                           00000006
NOT_T1SYNC                        00000002
NOT_TO                            00000004
NOT_TX8                           00000006
NOT_W                             00000002
NOT_WRITE                         00000002
OBF                               00000006
OERR                              00000001
OPTION_REG                        00000081
P                                 00000004
PCFG0                             00000000
PCFG1                             00000001
PCFG2                             00000002
PCFG3                             00000003
PCL                               00000002
PCLATH                            0000000A
PCON                              0000008E
PEIE                              00000006
PEN                               00000002
PIE1                              0000008C
PIE2                              0000008D
PIR1                              0000000C
PIR2                              0000000D
PORTA                             00000005
PORTB                             00000006
PORTC                             00000007
PORTD                             00000008
PORTE                             00000009
PR2                               00000092
PS0                               00000000
PS1                               00000001
PS2                               00000002
PSA                               00000003
PSAVE                             00000000
PSPIE                             00000007
PSPIF                             00000007
PSPMODE                           00000004
R                                 00000002
RA0                               00000000
RA1                               00000001
RA2                               00000002
RA3                               00000003
RA4                               00000004
RA5                               00000005
RB0                               00000000
RB1                               00000001
RB2                               00000002
gpasm-1.4.0 #1106 (Oct  6 2014) obj\Release\p   7-19-2020  20:05:22         PAGE 28


SYMBOL TABLE
  LABEL                             VALUE 

RB3                               00000003
RB4                               00000004
RB5                               00000005
RB6                               00000006
RB7                               00000007
RBIE                              00000003
RBIF                              00000000
RC0                               00000000
RC1                               00000001
RC2                               00000002
RC3                               00000003
RC4                               00000004
RC5                               00000005
RC6                               00000006
RC7                               00000007
RC8_9                             00000006
RC9                               00000006
RCD8                              00000000
RCEN                              00000003
RCIE                              00000005
RCIF                              00000005
RCREG                             0000001A
RCSTA                             00000018
RD                                00000000
RD0                               00000000
RD1                               00000001
RD2                               00000002
RD3                               00000003
RD4                               00000004
RD5                               00000005
RD6                               00000006
RD7                               00000007
RE0                               00000000
RE1                               00000001
RE2                               00000002
READ_WRITE                        00000002
RP0                               00000005
RP1                               00000006
RSEN                              00000001
RX9                               00000006
RX9D                              00000000
R_NOT_W                           00000002
R_W                               00000002
S                                 00000003
SEN                               00000000
SMP                               00000007
SPBRG                             00000099
SPEN                              00000007
SREN                              00000005
SSAVE                             00000000
SSPADD                            00000093
SSPBUF                            00000013
SSPCON                            00000014
gpasm-1.4.0 #1106 (Oct  6 2014) obj\Release\p   7-19-2020  20:05:22         PAGE 29


SYMBOL TABLE
  LABEL                             VALUE 

SSPCON2                           00000091
SSPEN                             00000005
SSPIE                             00000003
SSPIF                             00000003
SSPM0                             00000000
SSPM1                             00000001
SSPM2                             00000002
SSPM3                             00000003
SSPOV                             00000006
SSPSTAT                           00000094
STATUS                            00000003
STK00                             00000000
STK01                             00000000
STK02                             00000000
STK03                             00000000
STK04                             00000000
STK05                             00000000
STK06                             00000000
STK07                             00000000
STK08                             00000000
STK09                             00000000
STK10                             00000000
STK11                             00000000
STK12                             00000000
SYNC                              00000004
T0CS                              00000005
T0IE                              00000005
T0IF                              00000002
T0SE                              00000004
T1CKPS0                           00000004
T1CKPS1                           00000005
T1CON                             00000010
T1INSYNC                          00000002
T1OSCEN                           00000003
T1SYNC                            00000002
T2CKPS0                           00000000
T2CKPS1                           00000001
T2CON                             00000012
TMR0                              00000001
TMR0IE                            00000005
TMR0IF                            00000002
TMR1                              0000000E
TMR1CS                            00000001
TMR1H                             0000000F
TMR1IE                            00000000
TMR1IF                            00000000
TMR1L                             0000000E
TMR1ON                            00000000
TMR2                              00000011
TMR2IE                            00000001
TMR2IF                            00000001
TMR2ON                            00000002
TOUTPS0                           00000003
gpasm-1.4.0 #1106 (Oct  6 2014) obj\Release\p   7-19-2020  20:05:22         PAGE 30


SYMBOL TABLE
  LABEL                             VALUE 

TOUTPS1                           00000004
TOUTPS2                           00000005
TOUTPS3                           00000006
TRISA                             00000085
TRISA0                            00000000
TRISA1                            00000001
TRISA2                            00000002
TRISA3                            00000003
TRISA4                            00000004
TRISA5                            00000005
TRISB                             00000086
TRISB0                            00000000
TRISB1                            00000001
TRISB2                            00000002
TRISB3                            00000003
TRISB4                            00000004
TRISB5                            00000005
TRISB6                            00000006
TRISB7                            00000007
TRISC                             00000087
TRISC0                            00000000
TRISC1                            00000001
TRISC2                            00000002
TRISC3                            00000003
TRISC4                            00000004
TRISC5                            00000005
TRISC6                            00000006
TRISC7                            00000007
TRISD                             00000088
TRISD0                            00000000
TRISD1                            00000001
TRISD2                            00000002
TRISD3                            00000003
TRISD4                            00000004
TRISD5                            00000005
TRISD6                            00000006
TRISD7                            00000007
TRISE                             00000089
TRISE0                            00000000
TRISE1                            00000001
TRISE2                            00000002
TRMT                              00000001
TX8_9                             00000006
TX9                               00000006
TX9D                              00000000
TXD8                              00000000
TXEN                              00000005
TXIE                              00000004
TXIF                              00000004
TXREG                             00000019
TXSTA                             00000098
UA                                00000001
W                                 00000000
gpasm-1.4.0 #1106 (Oct  6 2014) obj\Release\p   7-19-2020  20:05:22         PAGE 31


SYMBOL TABLE
  LABEL                             VALUE 

WCOL                              00000007
WR                                00000001
WREN                              00000002
WRERR                             00000003
WSAVE                             00000000
Z                                 00000002
_00001_DS_                        00000175
_00002_DS_                        0000021A
_00003_DS_                        00000301
_00004_DS_                        0000036F
_00105_DS_                        00000306
_00106_DS_                        00000311
_00107_DS_                        0000031C
_00108_DS_                        00000327
_00110_DS_                        00000331
_00112_DS_                        00000374
_00114_DS_                        0000039A
_00116_DS_                        000003BB
_00125_DS_                        00000302
_00127_DS_                        00000370
_00132_DS_                        0000017A
_00133_DS_                        00000193
_00134_DS_                        000001AC
_00135_DS_                        000001C5
_00137_DS_                        000001DD
_00138_DS_                        0000021F
_00142_DS_                        0000025A
_00145_DS_                        00000283
_00149_DS_                        000002BE
_00155_DS_                        00000124
_00156_DS_                        000002E2
_00191_DS_                        00000176
_00193_DS_                        0000021B
_00209_DS_                        00000096
_00214_DS_                        000000F4
_00234_DS_                        00000026
_00235_DS_                        00000038
_00236_DS_                        0000008C
_00237_DS_                        000000EB
_ADCON0                           00000000
_ADCON0bits                       00000000
_ADCON1                           00000000
_ADCON1bits                       00000000
_ADC_GetResult                    00000000
_ADC_Init                         00000000
_ADC_Update                       00000000
_ADRESH                           00000000
_ADRESL                           00000000
_BODEN_OFF                        00003FBF
_BODEN_ON                         00003FFF
_BOREN_OFF                        00003FBF
_BOREN_ON                         00003FFF
_CCP1CON                          00000000
gpasm-1.4.0 #1106 (Oct  6 2014) obj\Release\p   7-19-2020  20:05:22         PAGE 32


SYMBOL TABLE
  LABEL                             VALUE 

_CCP1CONbits                      00000000
_CCP2CON                          00000000
_CCP2CONbits                      00000000
_CCPR1                            00000000
_CCPR1H                           00000000
_CCPR1L                           00000000
_CCPR2                            00000000
_CCPR2H                           00000000
_CCPR2L                           00000000
_CMCON                            00000000
_CMCONbits                        00000000
_CONFIG                           00002007
_CPD_OFF                          00003FFF
_CPD_ON                           00003EFF
_CP_ALL                           00001FFF
_CP_OFF                           00003FFF
_CP_ON                            00001FFF
_CVRCON                           00000000
_CVRCONbits                       00000000
_Cooler_GetState                  00000000
_Cooler_Init                      00000000
_Cooler_SetState                  00000000
_Cooler_update                    00000000
_Counters                         00000000
_DEBUG_OFF                        00003FFF
_DEBUG_ON                         000037FF
_DEVID1                           00002006
_EEADR                            00000000
_EEADRH                           00000000
_EECON1                           00000000
_EECON1bits                       00000000
_EECON2                           00000000
_EEDATA                           00000000
_EEDATH                           00000000
_FOSC_EXTRC                       00003FFF
_FOSC_HS                          00003FFE
_FOSC_LP                          00003FFC
_FOSC_XT                          00003FFD
_FSR                              00000000
_Flags                            00000000
_GPIO_GetPortPinState             00000000
_GPIO_InitPort                    00000000
_GPIO_InitPortPin                 00000000
_GPIO_SetPortPinState             00000000
_GPIO_SetPortState                00000000
_GPIO_Update                      00000000
_HS_OSC                           00003FFE
_Heater_GetState                  00000000
_Heater_Init                      00000000
_Heater_update                    00000000
_I2C_Begin                        00000000
_I2C_End                          00000000
_I2C_Hold                         00000000
gpasm-1.4.0 #1106 (Oct  6 2014) obj\Release\p   7-19-2020  20:05:22         PAGE 33


SYMBOL TABLE
  LABEL                             VALUE 

_I2C_Init                         00000000
_I2C_Read                         00000000
_I2C_Write                        00000000
_IDLOC0                           00002000
_IDLOC1                           00002001
_IDLOC2                           00002002
_IDLOC3                           00002003
_INDF                             00000000
_INTCON                           00000000
_INTCONbits                       00000000
_LED_GetState                     00000000
_LED_Init                         00000000
_LED_Update                       00000000
_LP_OSC                           00003FFC
_LVP_OFF                          00003F7F
_LVP_ON                           00003FFF
_OPTION_REG                       00000000
_OPTION_REGbits                   00000000
_PB_GetState                      000000F5
_PB_Init                          000002EB
_PB_Update                        00000121
_PCL                              00000000
_PCLATH                           00000000
_PCON                             00000000
_PCONbits                         00000000
_PIE1                             00000000
_PIE1bits                         00000000
_PIE2                             00000000
_PIE2bits                         00000000
_PIR1                             00000000
_PIR1bits                         00000000
_PIR2                             00000000
_PIR2bits                         00000000
_PORTA                            00000000
_PORTAbits                        00000000
_PORTB                            00000000
_PORTBbits                        00000000
_PORTC                            00000000
_PORTCbits                        00000000
_PORTD                            00000000
_PORTDbits                        00000000
_PORTE                            00000000
_PORTEbits                        00000000
_PR2                              00000000
_PWRTE_OFF                        00003FFF
_PWRTE_ON                         00003FF7
_RCREG                            00000000
_RCSTA                            00000000
_RCSTAbits                        00000000
_RC_OSC                           00003FFF
_Readings                         00000000
_SPBRG                            00000000
_SSD_GET_Symbol                   00000000
gpasm-1.4.0 #1106 (Oct  6 2014) obj\Release\p   7-19-2020  20:05:22         PAGE 34


SYMBOL TABLE
  LABEL                             VALUE 

_SSD_GET_state                    00000000
_SSD_Init                         00000000
_SSD_SET_Symbol                   00000000
_SSD_SET_state                    00000000
_SSD_update                       00000000
_SSPADD                           00000000
_SSPBUF                           00000000
_SSPCON                           00000000
_SSPCON2                          00000000
_SSPCON2bits                      00000000
_SSPCONbits                       00000000
_SSPSTAT                          00000000
_SSPSTATbits                      00000000
_STATUS                           00000000
_STATUSbits                       00000000
_SetValue_update                  00000000
_SettingMode_update               00000000
_Start_conversion_Int             00000000
_T1CON                            00000000
_T1CONbits                        00000000
_T2CON                            00000000
_T2CONbits                        00000000
_TMR0                             00000000
_TMR0_Init                        00000000
_TMR0_Start                       00000000
_TMR0_Update                      00000000
_TMR1                             00000000
_TMR1H                            00000000
_TMR1L                            00000000
_TMR2                             00000000
_TRISA                            00000000
_TRISAbits                        00000000
_TRISB                            00000000
_TRISBbits                        00000000
_TRISC                            00000000
_TRISCbits                        00000000
_TRISD                            00000000
_TRISDbits                        00000000
_TRISE                            00000000
_TRISEbits                        00000000
_TXREG                            00000000
_TXSTA                            00000000
_TXSTAbits                        00000000
_Temprature_Init                  00000000
_Temprature_update                00000000
_UTIL_DelayMS                     00000000
_WDTE_OFF                         00003FFB
_WDTE_ON                          00003FFF
_WDT_OFF                          00003FFB
_WDT_ON                           00003FFF
_WRT_1FOURTH                      00003BFF
_WRT_256                          00003DFF
_WRT_HALF                         000039FF
gpasm-1.4.0 #1106 (Oct  6 2014) obj\Release\p   7-19-2020  20:05:22         PAGE 35


SYMBOL TABLE
  LABEL                             VALUE 

_WRT_OFF                          00003FFF
_XT_OSC                           00003FFD
__16F877A                         00000001
__CODE_END                        00001FFF
__CODE_START                      00000000
__COMMON_RAM_END                  0000007F
__COMMON_RAM_START                00000070
__EEPROM_END                      000021FF
__EEPROM_START                    00002100
__VECTOR_INT                      00000004
__VECTOR_RESET                    00000000
__mulchar                         00000000
_code_push_button_00FE            000000FE
_code_push_button_012C            0000012C
_code_push_button_0180            00000180
_code_push_button_0199            00000199
_code_push_button_01B2            000001B2
_code_push_button_01CB            000001CB
_code_push_button_01E5            000001E5
_code_push_button_030E            0000030E
_code_push_button_0319            00000319
_code_push_button_0324            00000324
_code_push_button_032F            0000032F
_code_push_button_0339            00000339
_e2pex_update                     00000000
_e2pext_r                         00000000
_e2pext_w                         00000000
_pb_info                          00000015
r0x101E                           0000000D
r0x101F                           0000000E
r0x1020                           0000000F
r0x1021                           00000010
r0x1022                           00000011
r0x1023                           00000012
r0x1024                           00000013
r0x1025                           00000014
r0x1026                           00000005
r0x1027                           00000006
r0x1028                           00000007
r0x1029                           00000008
r0x102A                           00000009
r0x102B                           0000000A
r0x102C                           0000000B
r0x102D                           0000000C
r0x102E                           00000000
r0x102F                           00000001
r0x1030                           00000002
r0x1031                           00000003
r0x1032                           00000004

Errors   :     0
Warnings :     0 reported,     0 suppressed
Messages :     0 reported,     0 suppressed

