gpasm-1.4.0 #1106 (Oct  6 2014) obj\Release\s   7-17-2020  06:58:43         PAGE  1


LOC    OBJECT CODE    LINE  SOURCE TEXT
  VALUE

                      00001 ;--------------------------------------------------------
                      00002 ; File Created by SDCC : free open source ANSI-C Compiler
                      00003 ; Version 3.5.0 #9253 (Jun 20 2015) (MINGW32)
                      00004 ; This file was generated Fri Jul 17 06:58:43 2020
                      00005 ;--------------------------------------------------------
                      00006 ; PIC port for the 14-bit core
                      00007 ;--------------------------------------------------------
                      00008 ;       .file   "setting_mode.c"
                      00009         list    p=16f877a
                      00010         radix dec
                      00011         include "p16f877a.inc"
                      00001         LIST
                      00002 
                      00003 ;==========================================================================
                      00004 ; Build date : Aug 07 2014
                      00005 ;  MPASM PIC16F877A processor include
                      00006 ; 
                      00007 ;  (c) Copyright 1999-2014 Microchip Technology, All rights reserved
                      00008 ;==========================================================================
                      00009 
                      00567         LIST
                      00012 ;--------------------------------------------------------
                      00013 ; external declarations
                      00014 ;--------------------------------------------------------
  0000                00015         extern  _GPIO_InitPortPin
  0000                00016         extern  _GPIO_InitPort
  0000                00017         extern  _GPIO_Update
  0000                00018         extern  _GPIO_SetPortPinState
  0000                00019         extern  _GPIO_SetPortState
  0000                00020         extern  _GPIO_GetPortPinState
  0000                00021         extern  _UTIL_DelayMS
  0000                00022         extern  _SSD_Init
  0000                00023         extern  _SSD_SET_Symbol
  0000                00024         extern  _SSD_SET_state
  0000                00025         extern  _SSD_GET_state
  0000                00026         extern  _SSD_GET_Symbol
  0000                00027         extern  _SSD_update
  0000                00028         extern  _PB_Init
  0000                00029         extern  _PB_Update
  0000                00030         extern  _PB_GetState
  0000                00031         extern  _Heater_Init
  0000                00032         extern  _Heater_SetState
  0000                00033         extern  _Heater_GetState
  0000                00034         extern  _Heater_update
  0000                00035         extern  _Cooler_Init
  0000                00036         extern  _Cooler_SetState
  0000                00037         extern  _Cooler_GetState
  0000                00038         extern  _Cooler_update
  0000                00039         extern  _LED_Init
  0000                00040         extern  _LED_Update
  0000                00041         extern  _LED_GetState
  0000                00042         extern  _LED_SetState
  0000                00043         extern  _TMR0_Init
gpasm-1.4.0 #1106 (Oct  6 2014) obj\Release\s   7-17-2020  06:58:43         PAGE  2


LOC    OBJECT CODE    LINE  SOURCE TEXT
  VALUE

  0000                00044         extern  _TMR0_Update
  0000                00045         extern  _TMR0_Start
  0000                00046         extern  _ADC_Init
  0000                00047         extern  _ADC_Update
  0000                00048         extern  _ADC_GetResult
  0000                00049         extern  _Start_conversion_Int
  0000                00050         extern  _Temprature_Init
  0000                00051         extern  _Temprature_update
  0000                00052         extern  _SettingMode_Get_SSD_state
  0000                00053         extern  _STATUSbits
  0000                00054         extern  _PORTAbits
  0000                00055         extern  _PORTBbits
  0000                00056         extern  _PORTCbits
  0000                00057         extern  _PORTDbits
  0000                00058         extern  _PORTEbits
  0000                00059         extern  _INTCONbits
  0000                00060         extern  _PIR1bits
  0000                00061         extern  _PIR2bits
  0000                00062         extern  _T1CONbits
  0000                00063         extern  _T2CONbits
  0000                00064         extern  _SSPCONbits
  0000                00065         extern  _CCP1CONbits
  0000                00066         extern  _RCSTAbits
  0000                00067         extern  _CCP2CONbits
  0000                00068         extern  _ADCON0bits
  0000                00069         extern  _OPTION_REGbits
  0000                00070         extern  _TRISAbits
  0000                00071         extern  _TRISBbits
  0000                00072         extern  _TRISCbits
  0000                00073         extern  _TRISDbits
  0000                00074         extern  _TRISEbits
  0000                00075         extern  _PIE1bits
  0000                00076         extern  _PIE2bits
  0000                00077         extern  _PCONbits
  0000                00078         extern  _SSPCON2bits
  0000                00079         extern  _SSPSTATbits
  0000                00080         extern  _TXSTAbits
  0000                00081         extern  _CMCONbits
  0000                00082         extern  _CVRCONbits
  0000                00083         extern  _ADCON1bits
  0000                00084         extern  _EECON1bits
  0000                00085         extern  _INDF
  0000                00086         extern  _TMR0
  0000                00087         extern  _PCL
  0000                00088         extern  _STATUS
  0000                00089         extern  _FSR
  0000                00090         extern  _PORTA
  0000                00091         extern  _PORTB
  0000                00092         extern  _PORTC
  0000                00093         extern  _PORTD
  0000                00094         extern  _PORTE
  0000                00095         extern  _PCLATH
  0000                00096         extern  _INTCON
gpasm-1.4.0 #1106 (Oct  6 2014) obj\Release\s   7-17-2020  06:58:43         PAGE  3


LOC    OBJECT CODE    LINE  SOURCE TEXT
  VALUE

  0000                00097         extern  _PIR1
  0000                00098         extern  _PIR2
  0000                00099         extern  _TMR1
  0000                00100         extern  _TMR1L
  0000                00101         extern  _TMR1H
  0000                00102         extern  _T1CON
  0000                00103         extern  _TMR2
  0000                00104         extern  _T2CON
  0000                00105         extern  _SSPBUF
  0000                00106         extern  _SSPCON
  0000                00107         extern  _CCPR1
  0000                00108         extern  _CCPR1L
  0000                00109         extern  _CCPR1H
  0000                00110         extern  _CCP1CON
  0000                00111         extern  _RCSTA
  0000                00112         extern  _TXREG
  0000                00113         extern  _RCREG
  0000                00114         extern  _CCPR2
  0000                00115         extern  _CCPR2L
  0000                00116         extern  _CCPR2H
  0000                00117         extern  _CCP2CON
  0000                00118         extern  _ADRESH
  0000                00119         extern  _ADCON0
  0000                00120         extern  _OPTION_REG
  0000                00121         extern  _TRISA
  0000                00122         extern  _TRISB
  0000                00123         extern  _TRISC
  0000                00124         extern  _TRISD
  0000                00125         extern  _TRISE
  0000                00126         extern  _PIE1
  0000                00127         extern  _PIE2
  0000                00128         extern  _PCON
  0000                00129         extern  _SSPCON2
  0000                00130         extern  _PR2
  0000                00131         extern  _SSPADD
  0000                00132         extern  _SSPSTAT
  0000                00133         extern  _TXSTA
  0000                00134         extern  _SPBRG
  0000                00135         extern  _CMCON
  0000                00136         extern  _CVRCON
  0000                00137         extern  _ADRESL
  0000                00138         extern  _ADCON1
  0000                00139         extern  _EEDATA
  0000                00140         extern  _EEADR
  0000                00141         extern  _EEDATH
  0000                00142         extern  _EEADRH
  0000                00143         extern  _EECON1
  0000                00144         extern  _EECON2
                      00145 
  0000                00146         extern PSAVE
  0000                00147         extern SSAVE
  0000                00148         extern WSAVE
  0000                00149         extern STK12
gpasm-1.4.0 #1106 (Oct  6 2014) obj\Release\s   7-17-2020  06:58:43         PAGE  4


LOC    OBJECT CODE    LINE  SOURCE TEXT
  VALUE

  0000                00150         extern STK11
  0000                00151         extern STK10
  0000                00152         extern STK09
  0000                00153         extern STK08
  0000                00154         extern STK07
  0000                00155         extern STK06
  0000                00156         extern STK05
  0000                00157         extern STK04
  0000                00158         extern STK03
  0000                00159         extern STK02
  0000                00160         extern STK01
  0000                00161         extern STK00
                      00162 ;--------------------------------------------------------
                      00163 ; global declarations
                      00164 ;--------------------------------------------------------
  0000                00165         global  _SettingMode_OFF_mode
  0000                00166         global  _SettingMode_update
  0000                00167         global  _Counters
  0000                00168         global  _Readings
  0000                00169         global  _Flags
                      00170 
                      00171 ;--------------------------------------------------------
                      00172 ; global definitions
                      00173 ;--------------------------------------------------------
                      00174 UD_setting_mode_0       udata
0000                  00175 _Counters       res     6
                      00176 
                      00177 UD_setting_mode_1       udata
0000                  00178 _Readings       res     8
                      00179 
                      00180 UD_setting_mode_2       udata
0000                  00181 _Flags  res     5
                      00182 
                      00183 ;--------------------------------------------------------
                      00184 ; absolute symbol definitions
                      00185 ;--------------------------------------------------------
                      00186 ;--------------------------------------------------------
                      00187 ; compiler-defined variables
                      00188 ;--------------------------------------------------------
                      00189 UDL_setting_mode_0      udata
0000                  00190 r0x1021 res     1
0001                  00191 r0x1022 res     1
0002                  00192 r0x1015 res     1
0003                  00193 r0x1016 res     1
0004                  00194 r0x1017 res     1
0005                  00195 r0x1018 res     1
0006                  00196 r0x1019 res     1
0007                  00197 r0x101A res     1
0008                  00198 r0x101B res     1
0009                  00199 r0x101C res     1
000A                  00200 r0x101D res     1
000B                  00201 r0x101E res     1
000C                  00202 r0x101F res     1
gpasm-1.4.0 #1106 (Oct  6 2014) obj\Release\s   7-17-2020  06:58:43         PAGE  5


LOC    OBJECT CODE    LINE  SOURCE TEXT
  VALUE

000D                  00203 r0x1020 res     1
000E                  00204 r0x1013 res     1
000F                  00205 r0x1014 res     1
                      00206 ;--------------------------------------------------------
                      00207 ; initialized data
                      00208 ;--------------------------------------------------------
                      00209 ;--------------------------------------------------------
                      00210 ; overlayable items in internal ram 
                      00211 ;--------------------------------------------------------
                      00212 ;       udata_ovr
                      00213 ;--------------------------------------------------------
                      00214 ; code
                      00215 ;--------------------------------------------------------
                      00216 code_setting_mode       code
                      00217 ;***
                      00218 ;  pBlock Stats: dbName = C
                      00219 ;***
                      00220 ;entry:  _SettingMode_OFF_mode  ;Function start
                      00221 ; 2 exit points
                      00222 ;has an exit
                      00223 ;functions called:
                      00224 ;   _SSD_SET_state
                      00225 ;   _SSD_SET_state
                      00226 ;   _SSD_SET_state
                      00227 ;   _SSD_SET_state
                      00228 ;1 compiler assigned register :
                      00229 ;   STK00
                      00230 ;; Starting pCode block
0000                  00231 _SettingMode_OFF_mode   ;Function start
                      00232 ; 2 exit points
                      00233 ;       .line   61; "setting_mode.c"    SSD_SET_state(SSD_MR,SSD_OFF);
0000   3000           00234         MOVLW   0x00
0001   00??           00235         MOVWF   STK00
0002   3002           00236         MOVLW   0x02
0003   ???? ????      00237         PAGESEL _SSD_SET_state
0005   2???           00238         CALL    _SSD_SET_state
0006   ???? ????      00239         PAGESEL $
                      00240 ;       .line   62; "setting_mode.c"    SSD_SET_state(SSD_R,SSD_OFF);
0008   3000           00241         MOVLW   0x00
0009   00??           00242         MOVWF   STK00
000A   3003           00243         MOVLW   0x03
000B   ???? ????      00244         PAGESEL _SSD_SET_state
000D   2???           00245         CALL    _SSD_SET_state
000E   ???? ????      00246         PAGESEL $
                      00247 ;;/home/sdcc-builder/build/sdcc-build/orig/sdcc/src/pic14/gen.c:6461: size=0, offset=0, AOP_TYPE(res)=8
                      00248 ;       .line   64; "setting_mode.c"    Flags.Heater_Operation = 0 ; //Turn off The heater element
0010   ???? ????      00249         BANKSEL _Flags
0012   01??           00250         CLRF    (_Flags + 2)
                      00251 ;;/home/sdcc-builder/build/sdcc-build/orig/sdcc/src/pic14/gen.c:6461: size=0, offset=0, AOP_TYPE(res)=8
                      00252 ;       .line   65; "setting_mode.c"    Flags.Cooler_Operation = 0 ; //Turn off Heater element
0013   01??           00253         CLRF    (_Flags + 3)
                      00254 ;;/home/sdcc-builder/build/sdcc-build/orig/sdcc/src/pic14/gen.c:6461: size=0, offset=0, AOP_TYPE(res)=8
                      00255 ;       .line   67; "setting_mode.c"    Flags.Toggle_led = 3;        //Turn off Warning Led
gpasm-1.4.0 #1106 (Oct  6 2014) obj\Release\s   7-17-2020  06:58:43         PAGE  6


LOC    OBJECT CODE    LINE  SOURCE TEXT
  VALUE

0014   3003           00256         MOVLW   0x03
0015   00??           00257         MOVWF   (_Flags + 1)
                      00258 ;;/home/sdcc-builder/build/sdcc-build/orig/sdcc/src/pic14/gen.c:6461: size=1, offset=0, AOP_TYPE(res)=8
                      00259 ;       .line   69; "setting_mode.c"    Counters.FixedMode_counter    = 0 ;
0016   ???? ????      00260         BANKSEL _Counters
0018   01??           00261         CLRF    (_Counters + 0)
                      00262 ;;/home/sdcc-builder/build/sdcc-build/orig/sdcc/src/pic14/gen.c:6461: size=0, offset=1, AOP_TYPE(res)=8
0019   01??           00263         CLRF    (_Counters + 1)
                      00264 ;;/home/sdcc-builder/build/sdcc-build/orig/sdcc/src/pic14/gen.c:6461: size=1, offset=0, AOP_TYPE(res)=8
                      00265 ;       .line   70; "setting_mode.c"    Counters.Blink_counter      = 0 ;
001A   01??           00266         CLRF    (_Counters + 2)
                      00267 ;;/home/sdcc-builder/build/sdcc-build/orig/sdcc/src/pic14/gen.c:6461: size=0, offset=1, AOP_TYPE(res)=8
001B   01??           00268         CLRF    (_Counters + 3)
                      00269 ;;/home/sdcc-builder/build/sdcc-build/orig/sdcc/src/pic14/gen.c:6461: size=3, offset=0, AOP_TYPE(res)=8
                      00270 ;       .line   71; "setting_mode.c"    Readings.temp_read          = 0 ;
001C   ???? ????      00271         BANKSEL _Readings
001E   01??           00272         CLRF    (_Readings + 0)
                      00273 ;;/home/sdcc-builder/build/sdcc-build/orig/sdcc/src/pic14/gen.c:6461: size=2, offset=1, AOP_TYPE(res)=8
001F   01??           00274         CLRF    (_Readings + 1)
                      00275 ;;/home/sdcc-builder/build/sdcc-build/orig/sdcc/src/pic14/gen.c:6461: size=1, offset=2, AOP_TYPE(res)=8
0020   01??           00276         CLRF    (_Readings + 2)
                      00277 ;;/home/sdcc-builder/build/sdcc-build/orig/sdcc/src/pic14/gen.c:6461: size=0, offset=3, AOP_TYPE(res)=8
0021   01??           00278         CLRF    (_Readings + 3)
0022   0008           00279         RETURN  
                      00280 ; exit point of _SettingMode_OFF_mode
                      00281 
                      00282 ;***
                      00283 ;  pBlock Stats: dbName = C
                      00284 ;***
                      00285 ;entry:  _SettingMode_Blinking_mode     ;Function start
                      00286 ; 2 exit points
                      00287 ;has an exit
                      00288 ;2 compiler assigned registers:
                      00289 ;   r0x1013
                      00290 ;   r0x1014
                      00291 ;; Starting pCode block
0023                  00292 _SettingMode_Blinking_mode      ;Function start
                      00293 ; 2 exit points
                      00294 ;;/home/sdcc-builder/build/sdcc-build/orig/sdcc/src/pic14/gen.c:6461: size=0, offset=0, AOP_TYPE(res)=8
                      00295 ;       .line   45; "setting_mode.c"    Flags.Heater_Operation = 0 ; //Turn off The heater element
0023   ???? ????      00296         BANKSEL _Flags
0025   01??           00297         CLRF    (_Flags + 2)
                      00298 ;;/home/sdcc-builder/build/sdcc-build/orig/sdcc/src/pic14/gen.c:6461: size=0, offset=0, AOP_TYPE(res)=8
                      00299 ;       .line   46; "setting_mode.c"    Flags.Cooler_Operation = 0 ;//Turn off Heater element
0026   01??           00300         CLRF    (_Flags + 3)
                      00301 ;;/home/sdcc-builder/build/sdcc-build/orig/sdcc/src/pic14/gen.c:6461: size=0, offset=0, AOP_TYPE(res)=8
                      00302 ;       .line   47; "setting_mode.c"    Flags.Toggle_led = 3;      //Turn off Warning Led
0027   3003           00303         MOVLW   0x03
0028   00??           00304         MOVWF   (_Flags + 1)
                      00305 ;       .line   49; "setting_mode.c"    if(Counters.Blink_counter == 100)
0029   ???? ????      00306         BANKSEL _Counters
002B   08??           00307         MOVF    (_Counters + 2),W
002C   ???? ????      00308         BANKSEL r0x1013
gpasm-1.4.0 #1106 (Oct  6 2014) obj\Release\s   7-17-2020  06:58:43         PAGE  7


LOC    OBJECT CODE    LINE  SOURCE TEXT
  VALUE

002E   00??           00309         MOVWF   r0x1013
002F   ???? ????      00310         BANKSEL _Counters
0031   08??           00311         MOVF    (_Counters + 3),W
0032   ???? ????      00312         BANKSEL r0x1014
0034   00??           00313         MOVWF   r0x1014
0035   08??           00314         MOVF    r0x1013,W
0036   3A64           00315         XORLW   0x64
0037   1D03           00316         BTFSS   STATUS,2
0038   2???           00317         GOTO    _00133_DS_
0039   08??           00318         MOVF    r0x1014,W
003A   3A00           00319         XORLW   0x00
003B   1D03           00320         BTFSS   STATUS,2
003C   2???           00321         GOTO    _00133_DS_
                      00322 ;       .line   51; "setting_mode.c"    Flags.next_state^=1; //toggle SSD State
003D   ???? ????      00323         BANKSEL _Flags
003F   08??           00324         MOVF    (_Flags + 0),W
0040   ???? ????      00325         BANKSEL r0x1013
0042   00??           00326         MOVWF   r0x1013
0043   3001           00327         MOVLW   0x01
0044   06??           00328         XORWF   r0x1013,F
                      00329 ;;/home/sdcc-builder/build/sdcc-build/orig/sdcc/src/pic14/gen.c:6461: size=0, offset=0, AOP_TYPE(res)=8
0045   08??           00330         MOVF    r0x1013,W
0046   ???? ????      00331         BANKSEL _Flags
0048   00??           00332         MOVWF   (_Flags + 0)
                      00333 ;;/home/sdcc-builder/build/sdcc-build/orig/sdcc/src/pic14/gen.c:6461: size=1, offset=0, AOP_TYPE(res)=8
                      00334 ;       .line   52; "setting_mode.c"    Counters.Blink_counter = 0 ;
0049   ???? ????      00335         BANKSEL _Counters
004B   01??           00336         CLRF    (_Counters + 2)
                      00337 ;;/home/sdcc-builder/build/sdcc-build/orig/sdcc/src/pic14/gen.c:6461: size=0, offset=1, AOP_TYPE(res)=8
004C   01??           00338         CLRF    (_Counters + 3)
004D                  00339 _00133_DS_
                      00340 ;       .line   54; "setting_mode.c"    Counters.Blink_counter ++;
004D   ???? ????      00341         BANKSEL _Counters
004F   08??           00342         MOVF    (_Counters + 2),W
0050   ???? ????      00343         BANKSEL r0x1013
0052   00??           00344         MOVWF   r0x1013
0053   ???? ????      00345         BANKSEL _Counters
0055   08??           00346         MOVF    (_Counters + 3),W
0056   ???? ????      00347         BANKSEL r0x1014
0058   00??           00348         MOVWF   r0x1014
0059   0A??           00349         INCF    r0x1013,F
005A   1903           00350         BTFSC   STATUS,2
005B   0A??           00351         INCF    r0x1014,F
                      00352 ;;/home/sdcc-builder/build/sdcc-build/orig/sdcc/src/pic14/gen.c:6461: size=1, offset=0, AOP_TYPE(res)=8
005C   08??           00353         MOVF    r0x1013,W
005D   ???? ????      00354         BANKSEL _Counters
005F   00??           00355         MOVWF   (_Counters + 2)
                      00356 ;;/home/sdcc-builder/build/sdcc-build/orig/sdcc/src/pic14/gen.c:6461: size=0, offset=1, AOP_TYPE(res)=8
0060   ???? ????      00357         BANKSEL r0x1014
0062   08??           00358         MOVF    r0x1014,W
0063   ???? ????      00359         BANKSEL _Counters
0065   00??           00360         MOVWF   (_Counters + 3)
                      00361 ;       .line   55; "setting_mode.c"    Counters.FixedMode_counter++;
gpasm-1.4.0 #1106 (Oct  6 2014) obj\Release\s   7-17-2020  06:58:43         PAGE  8


LOC    OBJECT CODE    LINE  SOURCE TEXT
  VALUE

0066   08??           00362         MOVF    (_Counters + 0),W
0067   ???? ????      00363         BANKSEL r0x1013
0069   00??           00364         MOVWF   r0x1013
006A   ???? ????      00365         BANKSEL _Counters
006C   08??           00366         MOVF    (_Counters + 1),W
006D   ???? ????      00367         BANKSEL r0x1014
006F   00??           00368         MOVWF   r0x1014
0070   0A??           00369         INCF    r0x1013,F
0071   1903           00370         BTFSC   STATUS,2
0072   0A??           00371         INCF    r0x1014,F
                      00372 ;;/home/sdcc-builder/build/sdcc-build/orig/sdcc/src/pic14/gen.c:6461: size=1, offset=0, AOP_TYPE(res)=8
0073   08??           00373         MOVF    r0x1013,W
0074   ???? ????      00374         BANKSEL _Counters
0076   00??           00375         MOVWF   (_Counters + 0)
                      00376 ;;/home/sdcc-builder/build/sdcc-build/orig/sdcc/src/pic14/gen.c:6461: size=0, offset=1, AOP_TYPE(res)=8
0077   ???? ????      00377         BANKSEL r0x1014
0079   08??           00378         MOVF    r0x1014,W
007A   ???? ????      00379         BANKSEL _Counters
007C   00??           00380         MOVWF   (_Counters + 1)
007D   0008           00381         RETURN  
                      00382 ; exit point of _SettingMode_Blinking_mode
                      00383 
                      00384 ;***
                      00385 ;  pBlock Stats: dbName = C
                      00386 ;***
                      00387 ;entry:  _SettingMode_Fixed_mode        ;Function start
                      00388 ; 2 exit points
                      00389 ;has an exit
                      00390 ;12 compiler assigned registers:
                      00391 ;   r0x1015
                      00392 ;   r0x1016
                      00393 ;   r0x1017
                      00394 ;   r0x1018
                      00395 ;   r0x1019
                      00396 ;   r0x101A
                      00397 ;   r0x101B
                      00398 ;   r0x101C
                      00399 ;   r0x101D
                      00400 ;   r0x101E
                      00401 ;   r0x101F
                      00402 ;   r0x1020
                      00403 ;; Starting pCode block
007E                  00404 _SettingMode_Fixed_mode ;Function start
                      00405 ; 2 exit points
                      00406 ;;/home/sdcc-builder/build/sdcc-build/orig/sdcc/src/pic14/gen.c:6461: size=0, offset=0, AOP_TYPE(res)=8
                      00407 ;       .line   26; "setting_mode.c"    Flags.next_state = 1 ; //make the SSD go into normal operation
007E   3001           00408         MOVLW   0x01
007F   ???? ????      00409         BANKSEL _Flags
0081   00??           00410         MOVWF   (_Flags + 0)
                      00411 ;       .line   28; "setting_mode.c"    if(Readings.temp_read <= (Readings.Set_value-5))
0082   ???? ????      00412         BANKSEL _Readings
0084   08??           00413         MOVF    (_Readings + 0),W
0085   ???? ????      00414         BANKSEL r0x1015
gpasm-1.4.0 #1106 (Oct  6 2014) obj\Release\s   7-17-2020  06:58:43         PAGE  9


LOC    OBJECT CODE    LINE  SOURCE TEXT
  VALUE

0087   00??           00415         MOVWF   r0x1015
0088   ???? ????      00416         BANKSEL _Readings
008A   08??           00417         MOVF    (_Readings + 1),W
008B   ???? ????      00418         BANKSEL r0x1016
008D   00??           00419         MOVWF   r0x1016
008E   ???? ????      00420         BANKSEL _Readings
0090   08??           00421         MOVF    (_Readings + 2),W
0091   ???? ????      00422         BANKSEL r0x1017
0093   00??           00423         MOVWF   r0x1017
0094   ???? ????      00424         BANKSEL _Readings
0096   08??           00425         MOVF    (_Readings + 3),W
0097   ???? ????      00426         BANKSEL r0x1018
0099   00??           00427         MOVWF   r0x1018
009A   ???? ????      00428         BANKSEL _Readings
009C   08??           00429         MOVF    (_Readings + 4),W
009D   ???? ????      00430         BANKSEL r0x1019
009F   00??           00431         MOVWF   r0x1019
00A0   ???? ????      00432         BANKSEL _Readings
00A2   08??           00433         MOVF    (_Readings + 5),W
00A3   ???? ????      00434         BANKSEL r0x101A
00A5   00??           00435         MOVWF   r0x101A
00A6   ???? ????      00436         BANKSEL _Readings
00A8   08??           00437         MOVF    (_Readings + 6),W
00A9   ???? ????      00438         BANKSEL r0x101B
00AB   00??           00439         MOVWF   r0x101B
00AC   ???? ????      00440         BANKSEL _Readings
00AE   08??           00441         MOVF    (_Readings + 7),W
00AF   ???? ????      00442         BANKSEL r0x101C
00B1   00??           00443         MOVWF   r0x101C
00B2   30FB           00444         MOVLW   0xfb
00B3   07??           00445         ADDWF   r0x1019,W
00B4   00??           00446         MOVWF   r0x101D
00B5   30FF           00447         MOVLW   0xff
00B6   00??           00448         MOVWF   r0x101E
00B7   08??           00449         MOVF    r0x101A,W
00B8   1803           00450         BTFSC   STATUS,0
00B9   0F??           00451         INCFSZ  r0x101A,W
00BA   07??           00452         ADDWF   r0x101E,F
00BB   30FF           00453         MOVLW   0xff
00BC   00??           00454         MOVWF   r0x101F
00BD   08??           00455         MOVF    r0x101B,W
00BE   1803           00456         BTFSC   STATUS,0
00BF   0F??           00457         INCFSZ  r0x101B,W
00C0   07??           00458         ADDWF   r0x101F,F
00C1   30FF           00459         MOVLW   0xff
00C2   00??           00460         MOVWF   r0x1020
00C3   08??           00461         MOVF    r0x101C,W
00C4   1803           00462         BTFSC   STATUS,0
00C5   0F??           00463         INCFSZ  r0x101C,W
00C6   07??           00464         ADDWF   r0x1020,F
00C7   08??           00465         MOVF    r0x1018,W
00C8   02??           00466         SUBWF   r0x1020,W
00C9   1D03           00467         BTFSS   STATUS,2
gpasm-1.4.0 #1106 (Oct  6 2014) obj\Release\s   7-17-2020  06:58:43         PAGE 10


LOC    OBJECT CODE    LINE  SOURCE TEXT
  VALUE

00CA   2???           00468         GOTO    _00126_DS_
00CB   08??           00469         MOVF    r0x1017,W
00CC   02??           00470         SUBWF   r0x101F,W
00CD   1D03           00471         BTFSS   STATUS,2
00CE   2???           00472         GOTO    _00126_DS_
00CF   08??           00473         MOVF    r0x1016,W
00D0   02??           00474         SUBWF   r0x101E,W
00D1   1D03           00475         BTFSS   STATUS,2
00D2   2???           00476         GOTO    _00126_DS_
00D3   08??           00477         MOVF    r0x1015,W
00D4   02??           00478         SUBWF   r0x101D,W
00D5                  00479 _00126_DS_
00D5   1C03           00480         BTFSS   STATUS,0
00D6   2???           00481         GOTO    _00116_DS_
                      00482 ;;genSkipc:3247: created from rifx:027A5DF4
                      00483 ;;/home/sdcc-builder/build/sdcc-build/orig/sdcc/src/pic14/gen.c:6461: size=0, offset=0, AOP_TYPE(res)=8
                      00484 ;       .line   30; "setting_mode.c"    Flags.Toggle_led = 1 ;        //the led will toggle
00D7   3001           00485         MOVLW   0x01
                      00486 ;       .line   31; "setting_mode.c"    Flags.Heater_Operation = 1 ; //Turn on The Heater element
00D8   ???? ????      00487         BANKSEL _Flags
00DA   00??           00488         MOVWF   (_Flags + 1)
00DB   00??           00489         MOVWF   (_Flags + 2)
                      00490 ;;/home/sdcc-builder/build/sdcc-build/orig/sdcc/src/pic14/gen.c:6461: size=0, offset=0, AOP_TYPE(res)=8
                      00491 ;       .line   32; "setting_mode.c"    Flags.Cooler_Operation = 0 ;//Turn off Cooler element
00DC   01??           00492         CLRF    (_Flags + 3)
00DD   2???           00493         GOTO    _00118_DS_
00DE                  00494 _00116_DS_
                      00495 ;       .line   34; "setting_mode.c"    else if(Readings.temp_read >= (Readings.Set_value+5))
00DE   ???? ????      00496         BANKSEL _Readings
00E0   08??           00497         MOVF    (_Readings + 0),W
00E1   ???? ????      00498         BANKSEL r0x1015
00E3   00??           00499         MOVWF   r0x1015
00E4   ???? ????      00500         BANKSEL _Readings
00E6   08??           00501         MOVF    (_Readings + 1),W
00E7   ???? ????      00502         BANKSEL r0x1016
00E9   00??           00503         MOVWF   r0x1016
00EA   ???? ????      00504         BANKSEL _Readings
00EC   08??           00505         MOVF    (_Readings + 2),W
00ED   ???? ????      00506         BANKSEL r0x1017
00EF   00??           00507         MOVWF   r0x1017
00F0   ???? ????      00508         BANKSEL _Readings
00F2   08??           00509         MOVF    (_Readings + 3),W
00F3   ???? ????      00510         BANKSEL r0x1018
00F5   00??           00511         MOVWF   r0x1018
00F6   3005           00512         MOVLW   0x05
00F7   07??           00513         ADDWF   r0x1019,F
00F8   1803           00514         BTFSC   STATUS,0
00F9   0A??           00515         INCF    r0x101A,F
00FA   1903           00516         BTFSC   STATUS,2
00FB   0A??           00517         INCF    r0x101B,F
00FC   1903           00518         BTFSC   STATUS,2
00FD   0A??           00519         INCF    r0x101C,F
00FE   08??           00520         MOVF    r0x101C,W
gpasm-1.4.0 #1106 (Oct  6 2014) obj\Release\s   7-17-2020  06:58:43         PAGE 11


LOC    OBJECT CODE    LINE  SOURCE TEXT
  VALUE

00FF   02??           00521         SUBWF   r0x1018,W
0100   1D03           00522         BTFSS   STATUS,2
0101   2???           00523         GOTO    _00127_DS_
0102   08??           00524         MOVF    r0x101B,W
0103   02??           00525         SUBWF   r0x1017,W
0104   1D03           00526         BTFSS   STATUS,2
0105   2???           00527         GOTO    _00127_DS_
0106   08??           00528         MOVF    r0x101A,W
0107   02??           00529         SUBWF   r0x1016,W
0108   1D03           00530         BTFSS   STATUS,2
0109   2???           00531         GOTO    _00127_DS_
010A   08??           00532         MOVF    r0x1019,W
010B   02??           00533         SUBWF   r0x1015,W
010C                  00534 _00127_DS_
010C   1C03           00535         BTFSS   STATUS,0
010D   2???           00536         GOTO    _00118_DS_
                      00537 ;;genSkipc:3247: created from rifx:027A5DF4
                      00538 ;;/home/sdcc-builder/build/sdcc-build/orig/sdcc/src/pic14/gen.c:6461: size=0, offset=0, AOP_TYPE(res)=8
                      00539 ;       .line   36; "setting_mode.c"    Flags.Toggle_led   = 0 ;      //the led will turn on without tog
                            gling
010E   ???? ????      00540         BANKSEL _Flags
0110   01??           00541         CLRF    (_Flags + 1)
                      00542 ;;/home/sdcc-builder/build/sdcc-build/orig/sdcc/src/pic14/gen.c:6461: size=0, offset=0, AOP_TYPE(res)=8
                      00543 ;       .line   37; "setting_mode.c"    Flags.Heater_Operation = 0 ; //Turn on The Heater element
0111   01??           00544         CLRF    (_Flags + 2)
                      00545 ;;/home/sdcc-builder/build/sdcc-build/orig/sdcc/src/pic14/gen.c:6461: size=0, offset=0, AOP_TYPE(res)=8
                      00546 ;       .line   38; "setting_mode.c"    Flags.Cooler_Operation = 1 ;//Turn off Heater element
0112   3001           00547         MOVLW   0x01
0113   00??           00548         MOVWF   (_Flags + 3)
0114                  00549 _00118_DS_
0114   0008           00550         RETURN  
                      00551 ; exit point of _SettingMode_Fixed_mode
                      00552 
                      00553 ;***
                      00554 ;  pBlock Stats: dbName = C
                      00555 ;***
                      00556 ;entry:  _SettingMode_update    ;Function start
                      00557 ; 2 exit points
                      00558 ;has an exit
                      00559 ;functions called:
                      00560 ;   _SettingMode_Fixed_mode
                      00561 ;   _SettingMode_Blinking_mode
                      00562 ;   _SettingMode_Fixed_mode
                      00563 ;   _SettingMode_Blinking_mode
                      00564 ;2 compiler assigned registers:
                      00565 ;   r0x1021
                      00566 ;   r0x1022
                      00567 ;; Starting pCode block
0115                  00568 _SettingMode_update     ;Function start
                      00569 ; 2 exit points
                      00570 ;       .line   11; "setting_mode.c"    if(Counters.FixedMode_counter == 1000) //if 5s are run out witho
                            ut pressing up or down buttons the system goes into fixed mode
0115   ???? ????      00571         BANKSEL _Counters
gpasm-1.4.0 #1106 (Oct  6 2014) obj\Release\s   7-17-2020  06:58:43         PAGE 12


LOC    OBJECT CODE    LINE  SOURCE TEXT
  VALUE

0117   08??           00572         MOVF    (_Counters + 0),W
0118   ???? ????      00573         BANKSEL r0x1021
011A   00??           00574         MOVWF   r0x1021
011B   ???? ????      00575         BANKSEL _Counters
011D   08??           00576         MOVF    (_Counters + 1),W
011E   ???? ????      00577         BANKSEL r0x1022
0120   00??           00578         MOVWF   r0x1022
0121   08??           00579         MOVF    r0x1021,W
0122   3AE8           00580         XORLW   0xe8
0123   1D03           00581         BTFSS   STATUS,2
0124   2???           00582         GOTO    _00106_DS_
0125   08??           00583         MOVF    r0x1022,W
0126   3A03           00584         XORLW   0x03
0127   1D03           00585         BTFSS   STATUS,2
0128   2???           00586         GOTO    _00106_DS_
                      00587 ;       .line   13; "setting_mode.c"    SettingMode_Fixed_mode();
0129   2???           00588         CALL    _SettingMode_Fixed_mode
012A   2???           00589         GOTO    _00108_DS_
012B                  00590 _00106_DS_
                      00591 ;       .line   18; "setting_mode.c"    SettingMode_Blinking_mode();
012B   2???           00592         CALL    _SettingMode_Blinking_mode
012C                  00593 _00108_DS_
012C   0008           00594         RETURN  
                      00595 ; exit point of _SettingMode_update
                      00596 
                      00597 
                      00598 ;       code size estimation:
                      00599 ;         181+   60 =   241 instructions (  602 byte)
                      00600 
                      00601         end
gpasm-1.4.0 #1106 (Oct  6 2014) obj\Release\s   7-17-2020  06:58:43         PAGE 13


SYMBOL TABLE
  LABEL                             VALUE

ACKDT                             00000005
ACKEN                             00000004
ACKSTAT                           00000006
ADCON0                            0000001F
ADCON1                            0000009F
ADCS0                             00000006
ADCS1                             00000007
ADCS2                             00000006
ADDEN                             00000003
ADFM                              00000007
ADIE                              00000006
ADIF                              00000006
ADON                              00000000
ADRESH                            0000001E
ADRESL                            0000009E
BCLIE                             00000003
BCLIF                             00000003
BF                                00000000
BRGH                              00000002
C                                 00000000
C1INV                             00000004
C1OUT                             00000006
C2INV                             00000005
C2OUT                             00000007
CCP1CON                           00000017
CCP1IE                            00000002
CCP1IF                            00000002
CCP1M0                            00000000
CCP1M1                            00000001
CCP1M2                            00000002
CCP1M3                            00000003
CCP1X                             00000005
CCP1Y                             00000004
CCP2CON                           0000001D
CCP2IE                            00000000
CCP2IF                            00000000
CCP2M0                            00000000
CCP2M1                            00000001
CCP2M2                            00000002
CCP2M3                            00000003
CCP2X                             00000005
CCP2Y                             00000004
CCPR1                             00000015
CCPR1H                            00000016
CCPR1L                            00000015
CCPR2                             0000001B
CCPR2H                            0000001C
CCPR2L                            0000001B
CHS0                              00000003
CHS1                              00000004
CHS2                              00000005
CIS                               00000003
CKE                               00000006
gpasm-1.4.0 #1106 (Oct  6 2014) obj\Release\s   7-17-2020  06:58:43         PAGE 14


SYMBOL TABLE
  LABEL                             VALUE 

CKP                               00000004
CM0                               00000000
CM1                               00000001
CM2                               00000002
CMCON                             0000009C
CMIE                              00000006
CMIF                              00000006
CREN                              00000004
CSRC                              00000007
CVR0                              00000000
CVR1                              00000001
CVR2                              00000002
CVR3                              00000003
CVRCON                            0000009D
CVREN                             00000007
CVROE                             00000006
CVRR                              00000005
D                                 00000005
DATA_ADDRESS                      00000005
DC                                00000001
D_A                               00000005
D_NOT_A                           00000005
EEADR                             0000010D
EEADRH                            0000010F
EECON1                            0000018C
EECON2                            0000018D
EEDATA                            0000010C
EEDATH                            0000010E
EEIE                              00000004
EEIF                              00000004
EEPGD                             00000007
F                                 00000001
FERR                              00000002
FSR                               00000004
GCEN                              00000007
GIE                               00000007
GO                                00000002
GO_DONE                           00000002
GO_NOT_DONE                       00000002
I2C_DATA                          00000005
I2C_READ                          00000002
I2C_START                         00000003
I2C_STOP                          00000004
IBF                               00000007
IBOV                              00000005
INDF                              00000000
INTCON                            0000000B
INTE                              00000004
INTEDG                            00000006
INTF                              00000001
IRP                               00000007
NOT_A                             00000005
NOT_ADDRESS                       00000005
gpasm-1.4.0 #1106 (Oct  6 2014) obj\Release\s   7-17-2020  06:58:43         PAGE 15


SYMBOL TABLE
  LABEL                             VALUE 

NOT_BO                            00000000
NOT_BOR                           00000000
NOT_DONE                          00000002
NOT_PD                            00000003
NOT_POR                           00000001
NOT_RBPU                          00000007
NOT_RC8                           00000006
NOT_T1SYNC                        00000002
NOT_TO                            00000004
NOT_TX8                           00000006
NOT_W                             00000002
NOT_WRITE                         00000002
OBF                               00000006
OERR                              00000001
OPTION_REG                        00000081
P                                 00000004
PCFG0                             00000000
PCFG1                             00000001
PCFG2                             00000002
PCFG3                             00000003
PCL                               00000002
PCLATH                            0000000A
PCON                              0000008E
PEIE                              00000006
PEN                               00000002
PIE1                              0000008C
PIE2                              0000008D
PIR1                              0000000C
PIR2                              0000000D
PORTA                             00000005
PORTB                             00000006
PORTC                             00000007
PORTD                             00000008
PORTE                             00000009
PR2                               00000092
PS0                               00000000
PS1                               00000001
PS2                               00000002
PSA                               00000003
PSAVE                             00000000
PSPIE                             00000007
PSPIF                             00000007
PSPMODE                           00000004
R                                 00000002
RA0                               00000000
RA1                               00000001
RA2                               00000002
RA3                               00000003
RA4                               00000004
RA5                               00000005
RB0                               00000000
RB1                               00000001
RB2                               00000002
gpasm-1.4.0 #1106 (Oct  6 2014) obj\Release\s   7-17-2020  06:58:43         PAGE 16


SYMBOL TABLE
  LABEL                             VALUE 

RB3                               00000003
RB4                               00000004
RB5                               00000005
RB6                               00000006
RB7                               00000007
RBIE                              00000003
RBIF                              00000000
RC0                               00000000
RC1                               00000001
RC2                               00000002
RC3                               00000003
RC4                               00000004
RC5                               00000005
RC6                               00000006
RC7                               00000007
RC8_9                             00000006
RC9                               00000006
RCD8                              00000000
RCEN                              00000003
RCIE                              00000005
RCIF                              00000005
RCREG                             0000001A
RCSTA                             00000018
RD                                00000000
RD0                               00000000
RD1                               00000001
RD2                               00000002
RD3                               00000003
RD4                               00000004
RD5                               00000005
RD6                               00000006
RD7                               00000007
RE0                               00000000
RE1                               00000001
RE2                               00000002
READ_WRITE                        00000002
RP0                               00000005
RP1                               00000006
RSEN                              00000001
RX9                               00000006
RX9D                              00000000
R_NOT_W                           00000002
R_W                               00000002
S                                 00000003
SEN                               00000000
SMP                               00000007
SPBRG                             00000099
SPEN                              00000007
SREN                              00000005
SSAVE                             00000000
SSPADD                            00000093
SSPBUF                            00000013
SSPCON                            00000014
gpasm-1.4.0 #1106 (Oct  6 2014) obj\Release\s   7-17-2020  06:58:43         PAGE 17


SYMBOL TABLE
  LABEL                             VALUE 

SSPCON2                           00000091
SSPEN                             00000005
SSPIE                             00000003
SSPIF                             00000003
SSPM0                             00000000
SSPM1                             00000001
SSPM2                             00000002
SSPM3                             00000003
SSPOV                             00000006
SSPSTAT                           00000094
STATUS                            00000003
STK00                             00000000
STK01                             00000000
STK02                             00000000
STK03                             00000000
STK04                             00000000
STK05                             00000000
STK06                             00000000
STK07                             00000000
STK08                             00000000
STK09                             00000000
STK10                             00000000
STK11                             00000000
STK12                             00000000
SYNC                              00000004
T0CS                              00000005
T0IE                              00000005
T0IF                              00000002
T0SE                              00000004
T1CKPS0                           00000004
T1CKPS1                           00000005
T1CON                             00000010
T1INSYNC                          00000002
T1OSCEN                           00000003
T1SYNC                            00000002
T2CKPS0                           00000000
T2CKPS1                           00000001
T2CON                             00000012
TMR0                              00000001
TMR0IE                            00000005
TMR0IF                            00000002
TMR1                              0000000E
TMR1CS                            00000001
TMR1H                             0000000F
TMR1IE                            00000000
TMR1IF                            00000000
TMR1L                             0000000E
TMR1ON                            00000000
TMR2                              00000011
TMR2IE                            00000001
TMR2IF                            00000001
TMR2ON                            00000002
TOUTPS0                           00000003
gpasm-1.4.0 #1106 (Oct  6 2014) obj\Release\s   7-17-2020  06:58:43         PAGE 18


SYMBOL TABLE
  LABEL                             VALUE 

TOUTPS1                           00000004
TOUTPS2                           00000005
TOUTPS3                           00000006
TRISA                             00000085
TRISA0                            00000000
TRISA1                            00000001
TRISA2                            00000002
TRISA3                            00000003
TRISA4                            00000004
TRISA5                            00000005
TRISB                             00000086
TRISB0                            00000000
TRISB1                            00000001
TRISB2                            00000002
TRISB3                            00000003
TRISB4                            00000004
TRISB5                            00000005
TRISB6                            00000006
TRISB7                            00000007
TRISC                             00000087
TRISC0                            00000000
TRISC1                            00000001
TRISC2                            00000002
TRISC3                            00000003
TRISC4                            00000004
TRISC5                            00000005
TRISC6                            00000006
TRISC7                            00000007
TRISD                             00000088
TRISD0                            00000000
TRISD1                            00000001
TRISD2                            00000002
TRISD3                            00000003
TRISD4                            00000004
TRISD5                            00000005
TRISD6                            00000006
TRISD7                            00000007
TRISE                             00000089
TRISE0                            00000000
TRISE1                            00000001
TRISE2                            00000002
TRMT                              00000001
TX8_9                             00000006
TX9                               00000006
TX9D                              00000000
TXD8                              00000000
TXEN                              00000005
TXIE                              00000004
TXIF                              00000004
TXREG                             00000019
TXSTA                             00000098
UA                                00000001
W                                 00000000
gpasm-1.4.0 #1106 (Oct  6 2014) obj\Release\s   7-17-2020  06:58:43         PAGE 19


SYMBOL TABLE
  LABEL                             VALUE 

WCOL                              00000007
WR                                00000001
WREN                              00000002
WRERR                             00000003
WSAVE                             00000000
Z                                 00000002
_00106_DS_                        0000012B
_00108_DS_                        0000012C
_00116_DS_                        000000DE
_00118_DS_                        00000114
_00126_DS_                        000000D5
_00127_DS_                        0000010C
_00133_DS_                        0000004D
_ADCON0                           00000000
_ADCON0bits                       00000000
_ADCON1                           00000000
_ADCON1bits                       00000000
_ADC_GetResult                    00000000
_ADC_Init                         00000000
_ADC_Update                       00000000
_ADRESH                           00000000
_ADRESL                           00000000
_BODEN_OFF                        00003FBF
_BODEN_ON                         00003FFF
_BOREN_OFF                        00003FBF
_BOREN_ON                         00003FFF
_CCP1CON                          00000000
_CCP1CONbits                      00000000
_CCP2CON                          00000000
_CCP2CONbits                      00000000
_CCPR1                            00000000
_CCPR1H                           00000000
_CCPR1L                           00000000
_CCPR2                            00000000
_CCPR2H                           00000000
_CCPR2L                           00000000
_CMCON                            00000000
_CMCONbits                        00000000
_CONFIG                           00002007
_CPD_OFF                          00003FFF
_CPD_ON                           00003EFF
_CP_ALL                           00001FFF
_CP_OFF                           00003FFF
_CP_ON                            00001FFF
_CVRCON                           00000000
_CVRCONbits                       00000000
_Cooler_GetState                  00000000
_Cooler_Init                      00000000
_Cooler_SetState                  00000000
_Cooler_update                    00000000
_Counters                         00000000
_DEBUG_OFF                        00003FFF
_DEBUG_ON                         000037FF
gpasm-1.4.0 #1106 (Oct  6 2014) obj\Release\s   7-17-2020  06:58:43         PAGE 20


SYMBOL TABLE
  LABEL                             VALUE 

_DEVID1                           00002006
_EEADR                            00000000
_EEADRH                           00000000
_EECON1                           00000000
_EECON1bits                       00000000
_EECON2                           00000000
_EEDATA                           00000000
_EEDATH                           00000000
_FOSC_EXTRC                       00003FFF
_FOSC_HS                          00003FFE
_FOSC_LP                          00003FFC
_FOSC_XT                          00003FFD
_FSR                              00000000
_Flags                            00000000
_GPIO_GetPortPinState             00000000
_GPIO_InitPort                    00000000
_GPIO_InitPortPin                 00000000
_GPIO_SetPortPinState             00000000
_GPIO_SetPortState                00000000
_GPIO_Update                      00000000
_HS_OSC                           00003FFE
_Heater_GetState                  00000000
_Heater_Init                      00000000
_Heater_SetState                  00000000
_Heater_update                    00000000
_IDLOC0                           00002000
_IDLOC1                           00002001
_IDLOC2                           00002002
_IDLOC3                           00002003
_INDF                             00000000
_INTCON                           00000000
_INTCONbits                       00000000
_LED_GetState                     00000000
_LED_Init                         00000000
_LED_SetState                     00000000
_LED_Update                       00000000
_LP_OSC                           00003FFC
_LVP_OFF                          00003F7F
_LVP_ON                           00003FFF
_OPTION_REG                       00000000
_OPTION_REGbits                   00000000
_PB_GetState                      00000000
_PB_Init                          00000000
_PB_Update                        00000000
_PCL                              00000000
_PCLATH                           00000000
_PCON                             00000000
_PCONbits                         00000000
_PIE1                             00000000
_PIE1bits                         00000000
_PIE2                             00000000
_PIE2bits                         00000000
_PIR1                             00000000
gpasm-1.4.0 #1106 (Oct  6 2014) obj\Release\s   7-17-2020  06:58:43         PAGE 21


SYMBOL TABLE
  LABEL                             VALUE 

_PIR1bits                         00000000
_PIR2                             00000000
_PIR2bits                         00000000
_PORTA                            00000000
_PORTAbits                        00000000
_PORTB                            00000000
_PORTBbits                        00000000
_PORTC                            00000000
_PORTCbits                        00000000
_PORTD                            00000000
_PORTDbits                        00000000
_PORTE                            00000000
_PORTEbits                        00000000
_PR2                              00000000
_PWRTE_OFF                        00003FFF
_PWRTE_ON                         00003FF7
_RCREG                            00000000
_RCSTA                            00000000
_RCSTAbits                        00000000
_RC_OSC                           00003FFF
_Readings                         00000000
_SPBRG                            00000000
_SSD_GET_Symbol                   00000000
_SSD_GET_state                    00000000
_SSD_Init                         00000000
_SSD_SET_Symbol                   00000000
_SSD_SET_state                    00000000
_SSD_update                       00000000
_SSPADD                           00000000
_SSPBUF                           00000000
_SSPCON                           00000000
_SSPCON2                          00000000
_SSPCON2bits                      00000000
_SSPCONbits                       00000000
_SSPSTAT                          00000000
_SSPSTATbits                      00000000
_STATUS                           00000000
_STATUSbits                       00000000
_SettingMode_Blinking_mode        00000023
_SettingMode_Fixed_mode           0000007E
_SettingMode_Get_SSD_state        00000000
_SettingMode_OFF_mode             00000000
_SettingMode_update               00000115
_Start_conversion_Int             00000000
_T1CON                            00000000
_T1CONbits                        00000000
_T2CON                            00000000
_T2CONbits                        00000000
_TMR0                             00000000
_TMR0_Init                        00000000
_TMR0_Start                       00000000
_TMR0_Update                      00000000
_TMR1                             00000000
gpasm-1.4.0 #1106 (Oct  6 2014) obj\Release\s   7-17-2020  06:58:43         PAGE 22


SYMBOL TABLE
  LABEL                             VALUE 

_TMR1H                            00000000
_TMR1L                            00000000
_TMR2                             00000000
_TRISA                            00000000
_TRISAbits                        00000000
_TRISB                            00000000
_TRISBbits                        00000000
_TRISC                            00000000
_TRISCbits                        00000000
_TRISD                            00000000
_TRISDbits                        00000000
_TRISE                            00000000
_TRISEbits                        00000000
_TXREG                            00000000
_TXSTA                            00000000
_TXSTAbits                        00000000
_Temprature_Init                  00000000
_Temprature_update                00000000
_UTIL_DelayMS                     00000000
_WDTE_OFF                         00003FFB
_WDTE_ON                          00003FFF
_WDT_OFF                          00003FFB
_WDT_ON                           00003FFF
_WRT_1FOURTH                      00003BFF
_WRT_256                          00003DFF
_WRT_HALF                         000039FF
_WRT_OFF                          00003FFF
_XT_OSC                           00003FFD
__16F877A                         00000001
__CODE_END                        00001FFF
__CODE_START                      00000000
__COMMON_RAM_END                  0000007F
__COMMON_RAM_START                00000070
__EEPROM_END                      000021FF
__EEPROM_START                    00002100
__VECTOR_INT                      00000004
__VECTOR_RESET                    00000000
_code_setting_mode_0006           00000006
_code_setting_mode_000E           0000000E
r0x1013                           0000000E
r0x1014                           0000000F
r0x1015                           00000002
r0x1016                           00000003
r0x1017                           00000004
r0x1018                           00000005
r0x1019                           00000006
r0x101A                           00000007
r0x101B                           00000008
r0x101C                           00000009
r0x101D                           0000000A
r0x101E                           0000000B
r0x101F                           0000000C
r0x1020                           0000000D
gpasm-1.4.0 #1106 (Oct  6 2014) obj\Release\s   7-17-2020  06:58:43         PAGE 23


SYMBOL TABLE
  LABEL                             VALUE 

r0x1021                           00000000
r0x1022                           00000001

Errors   :     0
Warnings :     0 reported,     0 suppressed
Messages :     0 reported,     0 suppressed

