gpasm-1.4.0 #1106 (Oct  6 2014) obj\Release\T   7-19-2020  20:05:24         PAGE  1


LOC    OBJECT CODE    LINE  SOURCE TEXT
  VALUE

                      00001 ;--------------------------------------------------------
                      00002 ; File Created by SDCC : free open source ANSI-C Compiler
                      00003 ; Version 3.5.0 #9253 (Jun 20 2015) (MINGW32)
                      00004 ; This file was generated Sun Jul 19 20:05:24 2020
                      00005 ;--------------------------------------------------------
                      00006 ; PIC port for the 14-bit core
                      00007 ;--------------------------------------------------------
                      00008 ;       .file   "Timer.c"
                      00009         list    p=16f877a
                      00010         radix dec
                      00011         include "p16f877a.inc"
                      00001         LIST
                      00002 
                      00003 ;==========================================================================
                      00004 ; Build date : Aug 07 2014
                      00005 ;  MPASM PIC16F877A processor include
                      00006 ; 
                      00007 ;  (c) Copyright 1999-2014 Microchip Technology, All rights reserved
                      00008 ;==========================================================================
                      00009 
                      00567         LIST
                      00012 ;--------------------------------------------------------
                      00013 ; external declarations
                      00014 ;--------------------------------------------------------
  0000                00015         extern  _GPIO_InitPortPin
  0000                00016         extern  _GPIO_InitPort
  0000                00017         extern  _GPIO_Update
  0000                00018         extern  _GPIO_SetPortPinState
  0000                00019         extern  _GPIO_SetPortState
  0000                00020         extern  _GPIO_GetPortPinState
  0000                00021         extern  _UTIL_DelayMS
  0000                00022         extern  _SSD_Init
  0000                00023         extern  _SSD_SET_Symbol
  0000                00024         extern  _SSD_SET_state
  0000                00025         extern  _SSD_GET_state
  0000                00026         extern  _SSD_GET_Symbol
  0000                00027         extern  _SSD_update
  0000                00028         extern  _SettingMode_update
  0000                00029         extern  _PB_Init
  0000                00030         extern  _PB_Update
  0000                00031         extern  _PB_GetState
  0000                00032         extern  _ADC_Init
  0000                00033         extern  _ADC_Update
  0000                00034         extern  _ADC_GetResult
  0000                00035         extern  _Start_conversion_Int
  0000                00036         extern  _Temprature_Init
  0000                00037         extern  _Temprature_update
  0000                00038         extern  _LED_Init
  0000                00039         extern  _LED_GetState
  0000                00040         extern  _LED_Update
  0000                00041         extern  _Heater_Init
  0000                00042         extern  _Heater_update
  0000                00043         extern  _Heater_GetState
gpasm-1.4.0 #1106 (Oct  6 2014) obj\Release\T   7-19-2020  20:05:24         PAGE  2


LOC    OBJECT CODE    LINE  SOURCE TEXT
  VALUE

  0000                00044         extern  _Cooler_Init
  0000                00045         extern  _Cooler_SetState
  0000                00046         extern  _Cooler_GetState
  0000                00047         extern  _Cooler_update
  0000                00048         extern  _I2C_Init
  0000                00049         extern  _I2C_Hold
  0000                00050         extern  _I2C_Begin
  0000                00051         extern  _I2C_End
  0000                00052         extern  _I2C_Write
  0000                00053         extern  _I2C_Read
  0000                00054         extern  _e2pext_r
  0000                00055         extern  _e2pext_w
  0000                00056         extern  _e2pex_update
  0000                00057         extern  _STATUSbits
  0000                00058         extern  _PORTAbits
  0000                00059         extern  _PORTBbits
  0000                00060         extern  _PORTCbits
  0000                00061         extern  _PORTDbits
  0000                00062         extern  _PORTEbits
  0000                00063         extern  _INTCONbits
  0000                00064         extern  _PIR1bits
  0000                00065         extern  _PIR2bits
  0000                00066         extern  _T1CONbits
  0000                00067         extern  _T2CONbits
  0000                00068         extern  _SSPCONbits
  0000                00069         extern  _CCP1CONbits
  0000                00070         extern  _RCSTAbits
  0000                00071         extern  _CCP2CONbits
  0000                00072         extern  _ADCON0bits
  0000                00073         extern  _OPTION_REGbits
  0000                00074         extern  _TRISAbits
  0000                00075         extern  _TRISBbits
  0000                00076         extern  _TRISCbits
  0000                00077         extern  _TRISDbits
  0000                00078         extern  _TRISEbits
  0000                00079         extern  _PIE1bits
  0000                00080         extern  _PIE2bits
  0000                00081         extern  _PCONbits
  0000                00082         extern  _SSPCON2bits
  0000                00083         extern  _SSPSTATbits
  0000                00084         extern  _TXSTAbits
  0000                00085         extern  _CMCONbits
  0000                00086         extern  _CVRCONbits
  0000                00087         extern  _ADCON1bits
  0000                00088         extern  _EECON1bits
  0000                00089         extern  _Counters
  0000                00090         extern  _Flags
  0000                00091         extern  _Readings
  0000                00092         extern  _INDF
  0000                00093         extern  _TMR0
  0000                00094         extern  _PCL
  0000                00095         extern  _STATUS
  0000                00096         extern  _FSR
gpasm-1.4.0 #1106 (Oct  6 2014) obj\Release\T   7-19-2020  20:05:24         PAGE  3


LOC    OBJECT CODE    LINE  SOURCE TEXT
  VALUE

  0000                00097         extern  _PORTA
  0000                00098         extern  _PORTB
  0000                00099         extern  _PORTC
  0000                00100         extern  _PORTD
  0000                00101         extern  _PORTE
  0000                00102         extern  _PCLATH
  0000                00103         extern  _INTCON
  0000                00104         extern  _PIR1
  0000                00105         extern  _PIR2
  0000                00106         extern  _TMR1
  0000                00107         extern  _TMR1L
  0000                00108         extern  _TMR1H
  0000                00109         extern  _T1CON
  0000                00110         extern  _TMR2
  0000                00111         extern  _T2CON
  0000                00112         extern  _SSPBUF
  0000                00113         extern  _SSPCON
  0000                00114         extern  _CCPR1
  0000                00115         extern  _CCPR1L
  0000                00116         extern  _CCPR1H
  0000                00117         extern  _CCP1CON
  0000                00118         extern  _RCSTA
  0000                00119         extern  _TXREG
  0000                00120         extern  _RCREG
  0000                00121         extern  _CCPR2
  0000                00122         extern  _CCPR2L
  0000                00123         extern  _CCPR2H
  0000                00124         extern  _CCP2CON
  0000                00125         extern  _ADRESH
  0000                00126         extern  _ADCON0
  0000                00127         extern  _OPTION_REG
  0000                00128         extern  _TRISA
  0000                00129         extern  _TRISB
  0000                00130         extern  _TRISC
  0000                00131         extern  _TRISD
  0000                00132         extern  _TRISE
  0000                00133         extern  _PIE1
  0000                00134         extern  _PIE2
  0000                00135         extern  _PCON
  0000                00136         extern  _SSPCON2
  0000                00137         extern  _PR2
  0000                00138         extern  _SSPADD
  0000                00139         extern  _SSPSTAT
  0000                00140         extern  _TXSTA
  0000                00141         extern  _SPBRG
  0000                00142         extern  _CMCON
  0000                00143         extern  _CVRCON
  0000                00144         extern  _ADRESL
  0000                00145         extern  _ADCON1
  0000                00146         extern  _EEDATA
  0000                00147         extern  _EEADR
  0000                00148         extern  _EEDATH
  0000                00149         extern  _EEADRH
gpasm-1.4.0 #1106 (Oct  6 2014) obj\Release\T   7-19-2020  20:05:24         PAGE  4


LOC    OBJECT CODE    LINE  SOURCE TEXT
  VALUE

  0000                00150         extern  _EECON1
  0000                00151         extern  _EECON2
                      00152 
  0000                00153         extern PSAVE
  0000                00154         extern SSAVE
  0000                00155         extern WSAVE
  0000                00156         extern STK12
  0000                00157         extern STK11
  0000                00158         extern STK10
  0000                00159         extern STK09
  0000                00160         extern STK08
  0000                00161         extern STK07
  0000                00162         extern STK06
  0000                00163         extern STK05
  0000                00164         extern STK04
  0000                00165         extern STK03
  0000                00166         extern STK02
  0000                00167         extern STK01
  0000                00168         extern STK00
                      00169 ;--------------------------------------------------------
                      00170 ; global declarations
                      00171 ;--------------------------------------------------------
  0000                00172         global  _TMR0_Update
  0000                00173         global  _TMR0_Start
  0000                00174         global  _TMR0_Init
                      00175 
                      00176 ;--------------------------------------------------------
                      00177 ; global definitions
                      00178 ;--------------------------------------------------------
                      00179 ;--------------------------------------------------------
                      00180 ; absolute symbol definitions
                      00181 ;--------------------------------------------------------
                      00182 ;--------------------------------------------------------
                      00183 ; compiler-defined variables
                      00184 ;--------------------------------------------------------
                      00185 UDL_Timer_0     udata
0000                  00186 r0x1006 res     1
                      00187 ;--------------------------------------------------------
                      00188 ; initialized data
                      00189 ;--------------------------------------------------------
                      00190 ;--------------------------------------------------------
                      00191 ; overlayable items in internal ram 
                      00192 ;--------------------------------------------------------
                      00193 ;       udata_ovr
                      00194 ;--------------------------------------------------------
                      00195 ; code
                      00196 ;--------------------------------------------------------
                      00197 code_Timer      code
                      00198 ;***
                      00199 ;  pBlock Stats: dbName = C
                      00200 ;***
                      00201 ;entry:  _TMR0_Update   ;Function start
                      00202 ; 2 exit points
gpasm-1.4.0 #1106 (Oct  6 2014) obj\Release\T   7-19-2020  20:05:24         PAGE  5


LOC    OBJECT CODE    LINE  SOURCE TEXT
  VALUE

                      00203 ;has an exit
                      00204 ;functions called:
                      00205 ;   _PB_Update
                      00206 ;   _SSD_update
                      00207 ;   _Temprature_update
                      00208 ;   _LED_Update
                      00209 ;   _Heater_update
                      00210 ;   _Cooler_update
                      00211 ;   _SettingMode_update
                      00212 ;   _e2pex_update
                      00213 ;   _SettingMode_update
                      00214 ;   _Heater_update
                      00215 ;   _Cooler_update
                      00216 ;   _e2pex_update
                      00217 ;   _LED_Update
                      00218 ;   _PB_Update
                      00219 ;   _SSD_update
                      00220 ;   _Temprature_update
                      00221 ;   _LED_Update
                      00222 ;   _Heater_update
                      00223 ;   _Cooler_update
                      00224 ;   _SettingMode_update
                      00225 ;   _e2pex_update
                      00226 ;   _SettingMode_update
                      00227 ;   _Heater_update
                      00228 ;   _Cooler_update
                      00229 ;   _e2pex_update
                      00230 ;   _LED_Update
                      00231 ;1 compiler assigned register :
                      00232 ;   r0x1006
                      00233 ;; Starting pCode block
0000                  00234 _TMR0_Update    ;Function start
                      00235 ; 2 exit points
                      00236 ;       .line   20; "Timer.c"   if(Flags.Operation_Flag == ON_MODE)
0000   ???? ????      00237         BANKSEL _Flags
0002   08??           00238         MOVF    (_Flags + 4),W
0003   ???? ????      00239         BANKSEL r0x1006
0005   00??           00240         MOVWF   r0x1006
0006   3A01           00241         XORLW   0x01
0007   1D03           00242         BTFSS   STATUS,2
0008   2???           00243         GOTO    _00116_DS_
                      00244 ;       .line   22; "Timer.c"   PB_Update();               //~0
0009   ???? ????      00245         PAGESEL _PB_Update
000B   2???           00246         CALL    _PB_Update
000C   ???? ????      00247         PAGESEL $
                      00248 ;       .line   23; "Timer.c"   SSD_update();             //~0,4ms
000E   ???? ????      00249         PAGESEL _SSD_update
0010   2???           00250         CALL    _SSD_update
0011   ???? ????      00251         PAGESEL $
                      00252 ;       .line   24; "Timer.c"   Temprature_update();     //~0 ,9ms
0013   ???? ????      00253         PAGESEL _Temprature_update
0015   2???           00254         CALL    _Temprature_update
0016   ???? ????      00255         PAGESEL $
gpasm-1.4.0 #1106 (Oct  6 2014) obj\Release\T   7-19-2020  20:05:24         PAGE  6


LOC    OBJECT CODE    LINE  SOURCE TEXT
  VALUE

                      00256 ;       .line   25; "Timer.c"   LED_Update();           //~0
0018   ???? ????      00257         PAGESEL _LED_Update
001A   2???           00258         CALL    _LED_Update
001B   ???? ????      00259         PAGESEL $
                      00260 ;       .line   26; "Timer.c"   Heater_update();       //~0
001D   ???? ????      00261         PAGESEL _Heater_update
001F   2???           00262         CALL    _Heater_update
0020   ???? ????      00263         PAGESEL $
                      00264 ;       .line   27; "Timer.c"   Cooler_update();      //~0
0022   ???? ????      00265         PAGESEL _Cooler_update
0024   2???           00266         CALL    _Cooler_update
0025   ???? ????      00267         PAGESEL $
                      00268 ;       .line   28; "Timer.c"   SettingMode_update();//~0,0.08ms(fixed)  0,.06ms(blinking)
0027   ???? ????      00269         PAGESEL _SettingMode_update
0029   2???           00270         CALL    _SettingMode_update
002A   ???? ????      00271         PAGESEL $
                      00272 ;       .line   29; "Timer.c"   e2pex_update();     // 1.5  , 6.5ms
002C   ???? ????      00273         PAGESEL _e2pex_update
002E   2???           00274         CALL    _e2pex_update
002F   ???? ????      00275         PAGESEL $
0031   2???           00276         GOTO    _00118_DS_
0032                  00277 _00116_DS_
                      00278 ;       .line   31; "Timer.c"   else if(Flags.Operation_Flag == OFF_MODE)
0032   3000           00279         MOVLW   0x00
0033   ???? ????      00280         BANKSEL r0x1006
0035   04??           00281         IORWF   r0x1006,W
0036   1D03           00282         BTFSS   STATUS,2
0037   2???           00283         GOTO    _00118_DS_
                      00284 ;       .line   33; "Timer.c"   SettingMode_update(); //~0 , 0.08 ms(fixed)  0 ms ,.06(blinking)
0038   ???? ????      00285         PAGESEL _SettingMode_update
003A   2???           00286         CALL    _SettingMode_update
003B   ???? ????      00287         PAGESEL $
                      00288 ;       .line   34; "Timer.c"   Heater_update();     //~0
003D   ???? ????      00289         PAGESEL _Heater_update
003F   2???           00290         CALL    _Heater_update
0040   ???? ????      00291         PAGESEL $
                      00292 ;       .line   35; "Timer.c"   Cooler_update();    //~0
0042   ???? ????      00293         PAGESEL _Cooler_update
0044   2???           00294         CALL    _Cooler_update
0045   ???? ????      00295         PAGESEL $
                      00296 ;       .line   36; "Timer.c"   e2pex_update();    //1.5 ,6.5ms
0047   ???? ????      00297         PAGESEL _e2pex_update
0049   2???           00298         CALL    _e2pex_update
004A   ???? ????      00299         PAGESEL $
                      00300 ;       .line   37; "Timer.c"   LED_Update();     //~0
004C   ???? ????      00301         PAGESEL _LED_Update
004E   2???           00302         CALL    _LED_Update
004F   ???? ????      00303         PAGESEL $
0051                  00304 _00118_DS_
0051   0008           00305         RETURN  
                      00306 ; exit point of _TMR0_Update
                      00307 
                      00308 ;***
gpasm-1.4.0 #1106 (Oct  6 2014) obj\Release\T   7-19-2020  20:05:24         PAGE  7


LOC    OBJECT CODE    LINE  SOURCE TEXT
  VALUE

                      00309 ;  pBlock Stats: dbName = C
                      00310 ;***
                      00311 ;entry:  _TMR0_Start    ;Function start
                      00312 ; 2 exit points
                      00313 ;has an exit
                      00314 ;; Starting pCode block
0052                  00315 _TMR0_Start     ;Function start
                      00316 ; 2 exit points
                      00317 ;       .line   11; "Timer.c"   TMR0_SET_INTERRUPT_STATE(Interrupt);
0052   ???? ????      00318         BANKSEL _INTCONbits
0054   16??           00319         BSF     _INTCONbits,5
                      00320 ;       .line   12; "Timer.c"   GIE = 1; //set global interrupt flag
0055   17??           00321         BSF     _INTCONbits,7
                      00322 ;       .line   13; "Timer.c"   TMR0_SELECT_CLOCK_SOURCE(Timer);
0056   ???? ????      00323         BANKSEL _OPTION_REGbits
0058   12??           00324         BCF     _OPTION_REGbits,5
                      00325 ;       .line   14; "Timer.c"   TMR0_state(TMR0_ON); //TMR0 on
0059   12??           00326         BCF     _OPTION_REGbits,5
005A   0008           00327         RETURN  
                      00328 ; exit point of _TMR0_Start
                      00329 
                      00330 ;***
                      00331 ;  pBlock Stats: dbName = C
                      00332 ;***
                      00333 ;entry:  _TMR0_Init     ;Function start
                      00334 ; 2 exit points
                      00335 ;has an exit
                      00336 ;; Starting pCode block
005B                  00337 _TMR0_Init      ;Function start
                      00338 ; 2 exit points
                      00339 ;       .line   5; "Timer.c"    TMR0_state(TMR0_OFF);
005B   ???? ????      00340         BANKSEL _OPTION_REGbits
005D   16??           00341         BSF     _OPTION_REGbits,5
                      00342 ;       .line   6; "Timer.c"    TMR0_SELECT_PRESCALAR(N_256);
005E   11??           00343         BCF     _OPTION_REGbits,3
005F   15??           00344         BSF     _OPTION_REGbits,2
0060   14??           00345         BSF     _OPTION_REGbits,1
0061   14??           00346         BSF     _OPTION_REGbits,0
0062   0008           00347         RETURN  
                      00348 ; exit point of _TMR0_Init
                      00349 
                      00350 
                      00351 ;       code size estimation:
                      00352 ;          35+   32 =    67 instructions (  198 byte)
                      00353 
                      00354         end
gpasm-1.4.0 #1106 (Oct  6 2014) obj\Release\T   7-19-2020  20:05:24         PAGE  8


SYMBOL TABLE
  LABEL                             VALUE

ACKDT                             00000005
ACKEN                             00000004
ACKSTAT                           00000006
ADCON0                            0000001F
ADCON1                            0000009F
ADCS0                             00000006
ADCS1                             00000007
ADCS2                             00000006
ADDEN                             00000003
ADFM                              00000007
ADIE                              00000006
ADIF                              00000006
ADON                              00000000
ADRESH                            0000001E
ADRESL                            0000009E
BCLIE                             00000003
BCLIF                             00000003
BF                                00000000
BRGH                              00000002
C                                 00000000
C1INV                             00000004
C1OUT                             00000006
C2INV                             00000005
C2OUT                             00000007
CCP1CON                           00000017
CCP1IE                            00000002
CCP1IF                            00000002
CCP1M0                            00000000
CCP1M1                            00000001
CCP1M2                            00000002
CCP1M3                            00000003
CCP1X                             00000005
CCP1Y                             00000004
CCP2CON                           0000001D
CCP2IE                            00000000
CCP2IF                            00000000
CCP2M0                            00000000
CCP2M1                            00000001
CCP2M2                            00000002
CCP2M3                            00000003
CCP2X                             00000005
CCP2Y                             00000004
CCPR1                             00000015
CCPR1H                            00000016
CCPR1L                            00000015
CCPR2                             0000001B
CCPR2H                            0000001C
CCPR2L                            0000001B
CHS0                              00000003
CHS1                              00000004
CHS2                              00000005
CIS                               00000003
CKE                               00000006
gpasm-1.4.0 #1106 (Oct  6 2014) obj\Release\T   7-19-2020  20:05:24         PAGE  9


SYMBOL TABLE
  LABEL                             VALUE 

CKP                               00000004
CM0                               00000000
CM1                               00000001
CM2                               00000002
CMCON                             0000009C
CMIE                              00000006
CMIF                              00000006
CREN                              00000004
CSRC                              00000007
CVR0                              00000000
CVR1                              00000001
CVR2                              00000002
CVR3                              00000003
CVRCON                            0000009D
CVREN                             00000007
CVROE                             00000006
CVRR                              00000005
D                                 00000005
DATA_ADDRESS                      00000005
DC                                00000001
D_A                               00000005
D_NOT_A                           00000005
EEADR                             0000010D
EEADRH                            0000010F
EECON1                            0000018C
EECON2                            0000018D
EEDATA                            0000010C
EEDATH                            0000010E
EEIE                              00000004
EEIF                              00000004
EEPGD                             00000007
F                                 00000001
FERR                              00000002
FSR                               00000004
GCEN                              00000007
GIE                               00000007
GO                                00000002
GO_DONE                           00000002
GO_NOT_DONE                       00000002
I2C_DATA                          00000005
I2C_READ                          00000002
I2C_START                         00000003
I2C_STOP                          00000004
IBF                               00000007
IBOV                              00000005
INDF                              00000000
INTCON                            0000000B
INTE                              00000004
INTEDG                            00000006
INTF                              00000001
IRP                               00000007
NOT_A                             00000005
NOT_ADDRESS                       00000005
gpasm-1.4.0 #1106 (Oct  6 2014) obj\Release\T   7-19-2020  20:05:24         PAGE 10


SYMBOL TABLE
  LABEL                             VALUE 

NOT_BO                            00000000
NOT_BOR                           00000000
NOT_DONE                          00000002
NOT_PD                            00000003
NOT_POR                           00000001
NOT_RBPU                          00000007
NOT_RC8                           00000006
NOT_T1SYNC                        00000002
NOT_TO                            00000004
NOT_TX8                           00000006
NOT_W                             00000002
NOT_WRITE                         00000002
OBF                               00000006
OERR                              00000001
OPTION_REG                        00000081
P                                 00000004
PCFG0                             00000000
PCFG1                             00000001
PCFG2                             00000002
PCFG3                             00000003
PCL                               00000002
PCLATH                            0000000A
PCON                              0000008E
PEIE                              00000006
PEN                               00000002
PIE1                              0000008C
PIE2                              0000008D
PIR1                              0000000C
PIR2                              0000000D
PORTA                             00000005
PORTB                             00000006
PORTC                             00000007
PORTD                             00000008
PORTE                             00000009
PR2                               00000092
PS0                               00000000
PS1                               00000001
PS2                               00000002
PSA                               00000003
PSAVE                             00000000
PSPIE                             00000007
PSPIF                             00000007
PSPMODE                           00000004
R                                 00000002
RA0                               00000000
RA1                               00000001
RA2                               00000002
RA3                               00000003
RA4                               00000004
RA5                               00000005
RB0                               00000000
RB1                               00000001
RB2                               00000002
gpasm-1.4.0 #1106 (Oct  6 2014) obj\Release\T   7-19-2020  20:05:24         PAGE 11


SYMBOL TABLE
  LABEL                             VALUE 

RB3                               00000003
RB4                               00000004
RB5                               00000005
RB6                               00000006
RB7                               00000007
RBIE                              00000003
RBIF                              00000000
RC0                               00000000
RC1                               00000001
RC2                               00000002
RC3                               00000003
RC4                               00000004
RC5                               00000005
RC6                               00000006
RC7                               00000007
RC8_9                             00000006
RC9                               00000006
RCD8                              00000000
RCEN                              00000003
RCIE                              00000005
RCIF                              00000005
RCREG                             0000001A
RCSTA                             00000018
RD                                00000000
RD0                               00000000
RD1                               00000001
RD2                               00000002
RD3                               00000003
RD4                               00000004
RD5                               00000005
RD6                               00000006
RD7                               00000007
RE0                               00000000
RE1                               00000001
RE2                               00000002
READ_WRITE                        00000002
RP0                               00000005
RP1                               00000006
RSEN                              00000001
RX9                               00000006
RX9D                              00000000
R_NOT_W                           00000002
R_W                               00000002
S                                 00000003
SEN                               00000000
SMP                               00000007
SPBRG                             00000099
SPEN                              00000007
SREN                              00000005
SSAVE                             00000000
SSPADD                            00000093
SSPBUF                            00000013
SSPCON                            00000014
gpasm-1.4.0 #1106 (Oct  6 2014) obj\Release\T   7-19-2020  20:05:24         PAGE 12


SYMBOL TABLE
  LABEL                             VALUE 

SSPCON2                           00000091
SSPEN                             00000005
SSPIE                             00000003
SSPIF                             00000003
SSPM0                             00000000
SSPM1                             00000001
SSPM2                             00000002
SSPM3                             00000003
SSPOV                             00000006
SSPSTAT                           00000094
STATUS                            00000003
STK00                             00000000
STK01                             00000000
STK02                             00000000
STK03                             00000000
STK04                             00000000
STK05                             00000000
STK06                             00000000
STK07                             00000000
STK08                             00000000
STK09                             00000000
STK10                             00000000
STK11                             00000000
STK12                             00000000
SYNC                              00000004
T0CS                              00000005
T0IE                              00000005
T0IF                              00000002
T0SE                              00000004
T1CKPS0                           00000004
T1CKPS1                           00000005
T1CON                             00000010
T1INSYNC                          00000002
T1OSCEN                           00000003
T1SYNC                            00000002
T2CKPS0                           00000000
T2CKPS1                           00000001
T2CON                             00000012
TMR0                              00000001
TMR0IE                            00000005
TMR0IF                            00000002
TMR1                              0000000E
TMR1CS                            00000001
TMR1H                             0000000F
TMR1IE                            00000000
TMR1IF                            00000000
TMR1L                             0000000E
TMR1ON                            00000000
TMR2                              00000011
TMR2IE                            00000001
TMR2IF                            00000001
TMR2ON                            00000002
TOUTPS0                           00000003
gpasm-1.4.0 #1106 (Oct  6 2014) obj\Release\T   7-19-2020  20:05:24         PAGE 13


SYMBOL TABLE
  LABEL                             VALUE 

TOUTPS1                           00000004
TOUTPS2                           00000005
TOUTPS3                           00000006
TRISA                             00000085
TRISA0                            00000000
TRISA1                            00000001
TRISA2                            00000002
TRISA3                            00000003
TRISA4                            00000004
TRISA5                            00000005
TRISB                             00000086
TRISB0                            00000000
TRISB1                            00000001
TRISB2                            00000002
TRISB3                            00000003
TRISB4                            00000004
TRISB5                            00000005
TRISB6                            00000006
TRISB7                            00000007
TRISC                             00000087
TRISC0                            00000000
TRISC1                            00000001
TRISC2                            00000002
TRISC3                            00000003
TRISC4                            00000004
TRISC5                            00000005
TRISC6                            00000006
TRISC7                            00000007
TRISD                             00000088
TRISD0                            00000000
TRISD1                            00000001
TRISD2                            00000002
TRISD3                            00000003
TRISD4                            00000004
TRISD5                            00000005
TRISD6                            00000006
TRISD7                            00000007
TRISE                             00000089
TRISE0                            00000000
TRISE1                            00000001
TRISE2                            00000002
TRMT                              00000001
TX8_9                             00000006
TX9                               00000006
TX9D                              00000000
TXD8                              00000000
TXEN                              00000005
TXIE                              00000004
TXIF                              00000004
TXREG                             00000019
TXSTA                             00000098
UA                                00000001
W                                 00000000
gpasm-1.4.0 #1106 (Oct  6 2014) obj\Release\T   7-19-2020  20:05:24         PAGE 14


SYMBOL TABLE
  LABEL                             VALUE 

WCOL                              00000007
WR                                00000001
WREN                              00000002
WRERR                             00000003
WSAVE                             00000000
Z                                 00000002
_00116_DS_                        00000032
_00118_DS_                        00000051
_ADCON0                           00000000
_ADCON0bits                       00000000
_ADCON1                           00000000
_ADCON1bits                       00000000
_ADC_GetResult                    00000000
_ADC_Init                         00000000
_ADC_Update                       00000000
_ADRESH                           00000000
_ADRESL                           00000000
_BODEN_OFF                        00003FBF
_BODEN_ON                         00003FFF
_BOREN_OFF                        00003FBF
_BOREN_ON                         00003FFF
_CCP1CON                          00000000
_CCP1CONbits                      00000000
_CCP2CON                          00000000
_CCP2CONbits                      00000000
_CCPR1                            00000000
_CCPR1H                           00000000
_CCPR1L                           00000000
_CCPR2                            00000000
_CCPR2H                           00000000
_CCPR2L                           00000000
_CMCON                            00000000
_CMCONbits                        00000000
_CONFIG                           00002007
_CPD_OFF                          00003FFF
_CPD_ON                           00003EFF
_CP_ALL                           00001FFF
_CP_OFF                           00003FFF
_CP_ON                            00001FFF
_CVRCON                           00000000
_CVRCONbits                       00000000
_Cooler_GetState                  00000000
_Cooler_Init                      00000000
_Cooler_SetState                  00000000
_Cooler_update                    00000000
_Counters                         00000000
_DEBUG_OFF                        00003FFF
_DEBUG_ON                         000037FF
_DEVID1                           00002006
_EEADR                            00000000
_EEADRH                           00000000
_EECON1                           00000000
_EECON1bits                       00000000
gpasm-1.4.0 #1106 (Oct  6 2014) obj\Release\T   7-19-2020  20:05:24         PAGE 15


SYMBOL TABLE
  LABEL                             VALUE 

_EECON2                           00000000
_EEDATA                           00000000
_EEDATH                           00000000
_FOSC_EXTRC                       00003FFF
_FOSC_HS                          00003FFE
_FOSC_LP                          00003FFC
_FOSC_XT                          00003FFD
_FSR                              00000000
_Flags                            00000000
_GPIO_GetPortPinState             00000000
_GPIO_InitPort                    00000000
_GPIO_InitPortPin                 00000000
_GPIO_SetPortPinState             00000000
_GPIO_SetPortState                00000000
_GPIO_Update                      00000000
_HS_OSC                           00003FFE
_Heater_GetState                  00000000
_Heater_Init                      00000000
_Heater_update                    00000000
_I2C_Begin                        00000000
_I2C_End                          00000000
_I2C_Hold                         00000000
_I2C_Init                         00000000
_I2C_Read                         00000000
_I2C_Write                        00000000
_IDLOC0                           00002000
_IDLOC1                           00002001
_IDLOC2                           00002002
_IDLOC3                           00002003
_INDF                             00000000
_INTCON                           00000000
_INTCONbits                       00000000
_LED_GetState                     00000000
_LED_Init                         00000000
_LED_Update                       00000000
_LP_OSC                           00003FFC
_LVP_OFF                          00003F7F
_LVP_ON                           00003FFF
_OPTION_REG                       00000000
_OPTION_REGbits                   00000000
_PB_GetState                      00000000
_PB_Init                          00000000
_PB_Update                        00000000
_PCL                              00000000
_PCLATH                           00000000
_PCON                             00000000
_PCONbits                         00000000
_PIE1                             00000000
_PIE1bits                         00000000
_PIE2                             00000000
_PIE2bits                         00000000
_PIR1                             00000000
_PIR1bits                         00000000
gpasm-1.4.0 #1106 (Oct  6 2014) obj\Release\T   7-19-2020  20:05:24         PAGE 16


SYMBOL TABLE
  LABEL                             VALUE 

_PIR2                             00000000
_PIR2bits                         00000000
_PORTA                            00000000
_PORTAbits                        00000000
_PORTB                            00000000
_PORTBbits                        00000000
_PORTC                            00000000
_PORTCbits                        00000000
_PORTD                            00000000
_PORTDbits                        00000000
_PORTE                            00000000
_PORTEbits                        00000000
_PR2                              00000000
_PWRTE_OFF                        00003FFF
_PWRTE_ON                         00003FF7
_RCREG                            00000000
_RCSTA                            00000000
_RCSTAbits                        00000000
_RC_OSC                           00003FFF
_Readings                         00000000
_SPBRG                            00000000
_SSD_GET_Symbol                   00000000
_SSD_GET_state                    00000000
_SSD_Init                         00000000
_SSD_SET_Symbol                   00000000
_SSD_SET_state                    00000000
_SSD_update                       00000000
_SSPADD                           00000000
_SSPBUF                           00000000
_SSPCON                           00000000
_SSPCON2                          00000000
_SSPCON2bits                      00000000
_SSPCONbits                       00000000
_SSPSTAT                          00000000
_SSPSTATbits                      00000000
_STATUS                           00000000
_STATUSbits                       00000000
_SettingMode_update               00000000
_Start_conversion_Int             00000000
_T1CON                            00000000
_T1CONbits                        00000000
_T2CON                            00000000
_T2CONbits                        00000000
_TMR0                             00000000
_TMR0_Init                        0000005B
_TMR0_Start                       00000052
_TMR0_Update                      00000000
_TMR1                             00000000
_TMR1H                            00000000
_TMR1L                            00000000
_TMR2                             00000000
_TRISA                            00000000
_TRISAbits                        00000000
gpasm-1.4.0 #1106 (Oct  6 2014) obj\Release\T   7-19-2020  20:05:24         PAGE 17


SYMBOL TABLE
  LABEL                             VALUE 

_TRISB                            00000000
_TRISBbits                        00000000
_TRISC                            00000000
_TRISCbits                        00000000
_TRISD                            00000000
_TRISDbits                        00000000
_TRISE                            00000000
_TRISEbits                        00000000
_TXREG                            00000000
_TXSTA                            00000000
_TXSTAbits                        00000000
_Temprature_Init                  00000000
_Temprature_update                00000000
_UTIL_DelayMS                     00000000
_WDTE_OFF                         00003FFB
_WDTE_ON                          00003FFF
_WDT_OFF                          00003FFB
_WDT_ON                           00003FFF
_WRT_1FOURTH                      00003BFF
_WRT_256                          00003DFF
_WRT_HALF                         000039FF
_WRT_OFF                          00003FFF
_XT_OSC                           00003FFD
__16F877A                         00000001
__CODE_END                        00001FFF
__CODE_START                      00000000
__COMMON_RAM_END                  0000007F
__COMMON_RAM_START                00000070
__EEPROM_END                      000021FF
__EEPROM_START                    00002100
__VECTOR_INT                      00000004
__VECTOR_RESET                    00000000
_code_Timer_000C                  0000000C
_code_Timer_0011                  00000011
_code_Timer_0016                  00000016
_code_Timer_001B                  0000001B
_code_Timer_0020                  00000020
_code_Timer_0025                  00000025
_code_Timer_002A                  0000002A
_code_Timer_002F                  0000002F
_code_Timer_003B                  0000003B
_code_Timer_0040                  00000040
_code_Timer_0045                  00000045
_code_Timer_004A                  0000004A
_code_Timer_004F                  0000004F
_e2pex_update                     00000000
_e2pext_r                         00000000
_e2pext_w                         00000000
r0x1006                           00000000

Errors   :     0
Warnings :     0 reported,     0 suppressed
Messages :     0 reported,     0 suppressed

