gpasm-1.4.0 #1106 (Oct  6 2014) obj\Release\m   7-19-2020  20:05:22         PAGE  1


LOC    OBJECT CODE    LINE  SOURCE TEXT
  VALUE

                      00001 ;--------------------------------------------------------
                      00002 ; File Created by SDCC : free open source ANSI-C Compiler
                      00003 ; Version 3.5.0 #9253 (Jun 20 2015) (MINGW32)
                      00004 ; This file was generated Sun Jul 19 20:05:22 2020
                      00005 ;--------------------------------------------------------
                      00006 ; PIC port for the 14-bit core
                      00007 ;--------------------------------------------------------
                      00008 ;       .file   "main.c"
                      00009         list    p=16f877a
                      00010         radix dec
                      00011         include "p16f877a.inc"
                      00001         LIST
                      00002 
                      00003 ;==========================================================================
                      00004 ; Build date : Aug 07 2014
                      00005 ;  MPASM PIC16F877A processor include
                      00006 ; 
                      00007 ;  (c) Copyright 1999-2014 Microchip Technology, All rights reserved
                      00008 ;==========================================================================
                      00009 
                      00567         LIST
                      00012 ;--------------------------------------------------------
                      00013 ; config word(s)
                      00014 ;--------------------------------------------------------
2007   0000           00015         __config 0x3f32
                      00016 ;--------------------------------------------------------
                      00017 ; external declarations
                      00018 ;--------------------------------------------------------
  0000                00019         extern  _GPIO_InitPortPin
  0000                00020         extern  _GPIO_InitPort
  0000                00021         extern  _GPIO_Update
  0000                00022         extern  _GPIO_SetPortPinState
  0000                00023         extern  _GPIO_SetPortState
  0000                00024         extern  _GPIO_GetPortPinState
  0000                00025         extern  _ADC_Init
  0000                00026         extern  _ADC_Update
  0000                00027         extern  _ADC_GetResult
  0000                00028         extern  _Start_conversion_Int
  0000                00029         extern  _Temprature_Init
  0000                00030         extern  _Temprature_update
  0000                00031         extern  _LED_Init
  0000                00032         extern  _LED_GetState
  0000                00033         extern  _LED_Update
  0000                00034         extern  _Heater_Init
  0000                00035         extern  _Heater_update
  0000                00036         extern  _Heater_GetState
  0000                00037         extern  _Cooler_Init
  0000                00038         extern  _Cooler_SetState
  0000                00039         extern  _Cooler_GetState
  0000                00040         extern  _Cooler_update
  0000                00041         extern  _TMR0_Init
  0000                00042         extern  _TMR0_Update
  0000                00043         extern  _TMR0_Start
gpasm-1.4.0 #1106 (Oct  6 2014) obj\Release\m   7-19-2020  20:05:22         PAGE  2


LOC    OBJECT CODE    LINE  SOURCE TEXT
  VALUE

  0000                00044         extern  _UTIL_DelayMS
  0000                00045         extern  _SSD_Init
  0000                00046         extern  _SSD_SET_Symbol
  0000                00047         extern  _SSD_SET_state
  0000                00048         extern  _SSD_GET_state
  0000                00049         extern  _SSD_GET_Symbol
  0000                00050         extern  _SSD_update
  0000                00051         extern  _SettingMode_update
  0000                00052         extern  _PB_Init
  0000                00053         extern  _PB_Update
  0000                00054         extern  _PB_GetState
  0000                00055         extern  _RB0_INT_Init
  0000                00056         extern  _RB0Int_update
  0000                00057         extern  _ISR
  0000                00058         extern  _I2C_Init
  0000                00059         extern  _I2C_Hold
  0000                00060         extern  _I2C_Begin
  0000                00061         extern  _I2C_End
  0000                00062         extern  _I2C_Write
  0000                00063         extern  _I2C_Read
  0000                00064         extern  _e2pext_r
  0000                00065         extern  _e2pext_w
  0000                00066         extern  _e2pex_update
  0000                00067         extern  _STATUSbits
  0000                00068         extern  _PORTAbits
  0000                00069         extern  _PORTBbits
  0000                00070         extern  _PORTCbits
  0000                00071         extern  _PORTDbits
  0000                00072         extern  _PORTEbits
  0000                00073         extern  _INTCONbits
  0000                00074         extern  _PIR1bits
  0000                00075         extern  _PIR2bits
  0000                00076         extern  _T1CONbits
  0000                00077         extern  _T2CONbits
  0000                00078         extern  _SSPCONbits
  0000                00079         extern  _CCP1CONbits
  0000                00080         extern  _RCSTAbits
  0000                00081         extern  _CCP2CONbits
  0000                00082         extern  _ADCON0bits
  0000                00083         extern  _OPTION_REGbits
  0000                00084         extern  _TRISAbits
  0000                00085         extern  _TRISBbits
  0000                00086         extern  _TRISCbits
  0000                00087         extern  _TRISDbits
  0000                00088         extern  _TRISEbits
  0000                00089         extern  _PIE1bits
  0000                00090         extern  _PIE2bits
  0000                00091         extern  _PCONbits
  0000                00092         extern  _SSPCON2bits
  0000                00093         extern  _SSPSTATbits
  0000                00094         extern  _TXSTAbits
  0000                00095         extern  _CMCONbits
  0000                00096         extern  _CVRCONbits
gpasm-1.4.0 #1106 (Oct  6 2014) obj\Release\m   7-19-2020  20:05:22         PAGE  3


LOC    OBJECT CODE    LINE  SOURCE TEXT
  VALUE

  0000                00097         extern  _ADCON1bits
  0000                00098         extern  _EECON1bits
  0000                00099         extern  _Counters
  0000                00100         extern  _Flags
  0000                00101         extern  _Readings
  0000                00102         extern  _flag
  0000                00103         extern  _INDF
  0000                00104         extern  _TMR0
  0000                00105         extern  _PCL
  0000                00106         extern  _STATUS
  0000                00107         extern  _FSR
  0000                00108         extern  _PORTA
  0000                00109         extern  _PORTB
  0000                00110         extern  _PORTC
  0000                00111         extern  _PORTD
  0000                00112         extern  _PORTE
  0000                00113         extern  _PCLATH
  0000                00114         extern  _INTCON
  0000                00115         extern  _PIR1
  0000                00116         extern  _PIR2
  0000                00117         extern  _TMR1
  0000                00118         extern  _TMR1L
  0000                00119         extern  _TMR1H
  0000                00120         extern  _T1CON
  0000                00121         extern  _TMR2
  0000                00122         extern  _T2CON
  0000                00123         extern  _SSPBUF
  0000                00124         extern  _SSPCON
  0000                00125         extern  _CCPR1
  0000                00126         extern  _CCPR1L
  0000                00127         extern  _CCPR1H
  0000                00128         extern  _CCP1CON
  0000                00129         extern  _RCSTA
  0000                00130         extern  _TXREG
  0000                00131         extern  _RCREG
  0000                00132         extern  _CCPR2
  0000                00133         extern  _CCPR2L
  0000                00134         extern  _CCPR2H
  0000                00135         extern  _CCP2CON
  0000                00136         extern  _ADRESH
  0000                00137         extern  _ADCON0
  0000                00138         extern  _OPTION_REG
  0000                00139         extern  _TRISA
  0000                00140         extern  _TRISB
  0000                00141         extern  _TRISC
  0000                00142         extern  _TRISD
  0000                00143         extern  _TRISE
  0000                00144         extern  _PIE1
  0000                00145         extern  _PIE2
  0000                00146         extern  _PCON
  0000                00147         extern  _SSPCON2
  0000                00148         extern  _PR2
  0000                00149         extern  _SSPADD
gpasm-1.4.0 #1106 (Oct  6 2014) obj\Release\m   7-19-2020  20:05:22         PAGE  4


LOC    OBJECT CODE    LINE  SOURCE TEXT
  VALUE

  0000                00150         extern  _SSPSTAT
  0000                00151         extern  _TXSTA
  0000                00152         extern  _SPBRG
  0000                00153         extern  _CMCON
  0000                00154         extern  _CVRCON
  0000                00155         extern  _ADRESL
  0000                00156         extern  _ADCON1
  0000                00157         extern  _EEDATA
  0000                00158         extern  _EEADR
  0000                00159         extern  _EEDATH
  0000                00160         extern  _EEADRH
  0000                00161         extern  _EECON1
  0000                00162         extern  _EECON2
  0000                00163         extern  __sdcc_gsinit_startup
                      00164 ;--------------------------------------------------------
                      00165 ; global declarations
                      00166 ;--------------------------------------------------------
  0000                00167         global  _main
                      00168 
  0000                00169         global PSAVE
  0000                00170         global SSAVE
  0000                00171         global WSAVE
  0000                00172         global STK12
  0000                00173         global STK11
  0000                00174         global STK10
  0000                00175         global STK09
  0000                00176         global STK08
  0000                00177         global STK07
  0000                00178         global STK06
  0000                00179         global STK05
  0000                00180         global STK04
  0000                00181         global STK03
  0000                00182         global STK02
  0000                00183         global STK01
  0000                00184         global STK00
                      00185 
                      00186 sharebank udata_ovr 0x0070
0070                  00187 PSAVE   res 1
0071                  00188 SSAVE   res 1
0072                  00189 WSAVE   res 1
0073                  00190 STK12   res 1
0074                  00191 STK11   res 1
0075                  00192 STK10   res 1
0076                  00193 STK09   res 1
0077                  00194 STK08   res 1
0078                  00195 STK07   res 1
0079                  00196 STK06   res 1
007A                  00197 STK05   res 1
007B                  00198 STK04   res 1
007C                  00199 STK03   res 1
007D                  00200 STK02   res 1
007E                  00201 STK01   res 1
007F                  00202 STK00   res 1
gpasm-1.4.0 #1106 (Oct  6 2014) obj\Release\m   7-19-2020  20:05:22         PAGE  5


LOC    OBJECT CODE    LINE  SOURCE TEXT
  VALUE

                      00203 
                      00204 ;--------------------------------------------------------
                      00205 ; global definitions
                      00206 ;--------------------------------------------------------
                      00207 ;--------------------------------------------------------
                      00208 ; absolute symbol definitions
                      00209 ;--------------------------------------------------------
                      00210 ;--------------------------------------------------------
                      00211 ; compiler-defined variables
                      00212 ;--------------------------------------------------------
                      00213 ;--------------------------------------------------------
                      00214 ; initialized data
                      00215 ;--------------------------------------------------------
                      00216 ;--------------------------------------------------------
                      00217 ; overlayable items in internal ram 
                      00218 ;--------------------------------------------------------
                      00219 ;       udata_ovr
                      00220 ;--------------------------------------------------------
                      00221 ; reset vector 
                      00222 ;--------------------------------------------------------
                      00223 STARTUP code 0x0000
0000   0000           00224         nop
0001   ???? ????      00225         pagesel __sdcc_gsinit_startup
0003   2???           00226         goto    __sdcc_gsinit_startup
                      00227 ;--------------------------------------------------------
                      00228 ; code
                      00229 ;--------------------------------------------------------
                      00230 code_main       code
                      00231 ;***
                      00232 ;  pBlock Stats: dbName = M
                      00233 ;***
                      00234 ;entry:  _main  ;Function start
                      00235 ; 2 exit points
                      00236 ;has an exit
                      00237 ;functions called:
                      00238 ;   _PB_Init
                      00239 ;   _PB_Init
                      00240 ;   _RB0_INT_Init
                      00241 ;   _SSD_Init
                      00242 ;   _SSD_Init
                      00243 ;   _Heater_Init
                      00244 ;   _Cooler_Init
                      00245 ;   _LED_Init
                      00246 ;   _Temprature_Init
                      00247 ;   _I2C_Init
                      00248 ;   _TMR0_Init
                      00249 ;   _TMR0_Start
                      00250 ;   _TMR0_Update
                      00251 ;   _PB_Init
                      00252 ;   _PB_Init
                      00253 ;   _RB0_INT_Init
                      00254 ;   _SSD_Init
                      00255 ;   _SSD_Init
gpasm-1.4.0 #1106 (Oct  6 2014) obj\Release\m   7-19-2020  20:05:22         PAGE  6


LOC    OBJECT CODE    LINE  SOURCE TEXT
  VALUE

                      00256 ;   _Heater_Init
                      00257 ;   _Cooler_Init
                      00258 ;   _LED_Init
                      00259 ;   _Temprature_Init
                      00260 ;   _I2C_Init
                      00261 ;   _TMR0_Init
                      00262 ;   _TMR0_Start
                      00263 ;   _TMR0_Update
                      00264 ;3 compiler assigned registers:
                      00265 ;   STK00
                      00266 ;   STK01
                      00267 ;   STK02
                      00268 ;; Starting pCode block
0000                  00269 _main   ;Function start
                      00270 ; 2 exit points
                      00271 ;       .line   19; "main.c"    PB_Init(PB_UP,PB_RELEASED);
0000   3000           00272         MOVLW   0x00
0001   00??           00273         MOVWF   STK00
0002   3002           00274         MOVLW   0x02
0003   ???? ????      00275         PAGESEL _PB_Init
0005   2???           00276         CALL    _PB_Init
0006   ???? ????      00277         PAGESEL $
                      00278 ;       .line   20; "main.c"    PB_Init(PB_DOWN,PB_RELEASED);
0008   3000           00279         MOVLW   0x00
0009   00??           00280         MOVWF   STK00
000A   3001           00281         MOVLW   0x01
000B   ???? ????      00282         PAGESEL _PB_Init
000D   2???           00283         CALL    _PB_Init
000E   ???? ????      00284         PAGESEL $
                      00285 ;       .line   21; "main.c"    RB0_INT_Init();
0010   ???? ????      00286         PAGESEL _RB0_INT_Init
0012   2???           00287         CALL    _RB0_INT_Init
0013   ???? ????      00288         PAGESEL $
                      00289 ;       .line   24; "main.c"    SSD_Init(SSD_MR,SSD_OFF,SSD_NULL);
0015   300A           00290         MOVLW   0x0a
0016   00??           00291         MOVWF   STK01
0017   3000           00292         MOVLW   0x00
0018   00??           00293         MOVWF   STK00
0019   3000           00294         MOVLW   0x00
001A   ???? ????      00295         PAGESEL _SSD_Init
001C   2???           00296         CALL    _SSD_Init
001D   ???? ????      00297         PAGESEL $
                      00298 ;       .line   25; "main.c"    SSD_Init(SSD_R,SSD_OFF,SSD_NULL);
001F   300A           00299         MOVLW   0x0a
0020   00??           00300         MOVWF   STK01
0021   3000           00301         MOVLW   0x00
0022   00??           00302         MOVWF   STK00
0023   3001           00303         MOVLW   0x01
0024   ???? ????      00304         PAGESEL _SSD_Init
0026   2???           00305         CALL    _SSD_Init
0027   ???? ????      00306         PAGESEL $
                      00307 ;       .line   28; "main.c"    Heater_Init();
0029   ???? ????      00308         PAGESEL _Heater_Init
gpasm-1.4.0 #1106 (Oct  6 2014) obj\Release\m   7-19-2020  20:05:22         PAGE  7


LOC    OBJECT CODE    LINE  SOURCE TEXT
  VALUE

002B   2???           00309         CALL    _Heater_Init
002C   ???? ????      00310         PAGESEL $
                      00311 ;       .line   29; "main.c"    Cooler_Init();
002E   ???? ????      00312         PAGESEL _Cooler_Init
0030   2???           00313         CALL    _Cooler_Init
0031   ???? ????      00314         PAGESEL $
                      00315 ;       .line   30; "main.c"    LED_Init(LED_7,LED_OFF);
0033   3000           00316         MOVLW   0x00
0034   00??           00317         MOVWF   STK00
0035   3007           00318         MOVLW   0x07
0036   ???? ????      00319         PAGESEL _LED_Init
0038   2???           00320         CALL    _LED_Init
0039   ???? ????      00321         PAGESEL $
                      00322 ;       .line   33; "main.c"    Temprature_Init();
003B   ???? ????      00323         PAGESEL _Temprature_Init
003D   2???           00324         CALL    _Temprature_Init
003E   ???? ????      00325         PAGESEL $
                      00326 ;       .line   36; "main.c"    I2C_Init(488);//we choose this value because the system operates at 8MHz
                             frequency.
0040   30E8           00327         MOVLW   0xe8
0041   00??           00328         MOVWF   STK02
0042   3001           00329         MOVLW   0x01
0043   00??           00330         MOVWF   STK01
0044   3000           00331         MOVLW   0x00
0045   00??           00332         MOVWF   STK00
0046   3000           00333         MOVLW   0x00
0047   ???? ????      00334         PAGESEL _I2C_Init
0049   2???           00335         CALL    _I2C_Init
004A   ???? ????      00336         PAGESEL $
                      00337 ;;/home/sdcc-builder/build/sdcc-build/orig/sdcc/src/pic14/gen.c:6461: size=0, offset=0, AOP_TYPE(res)=8
                      00338 ;       .line   37; "main.c"    Flags.e2prom_flag = 0;
004C   ???? ????      00339         BANKSEL _Flags
004E   01??           00340         CLRF    (_Flags + 5)
                      00341 ;       .line   39; "main.c"    TMR0_Init();
004F   ???? ????      00342         PAGESEL _TMR0_Init
0051   2???           00343         CALL    _TMR0_Init
0052   ???? ????      00344         PAGESEL $
                      00345 ;       .line   40; "main.c"    TMR0_Start();
0054   ???? ????      00346         PAGESEL _TMR0_Start
0056   2???           00347         CALL    _TMR0_Start
0057   ???? ????      00348         PAGESEL $
0059                  00349 _00105_DS_
                      00350 ;       .line   44; "main.c"    while(flag == 0){
0059   3000           00351         MOVLW   0x00
005A   ???? ????      00352         BANKSEL _flag
005C   04??           00353         IORWF   _flag,W
005D   1903           00354         BTFSC   STATUS,2
005E   2???           00355         GOTO    _00105_DS_
                      00356 ;       .line   47; "main.c"    flag = 0;
005F   01??           00357         CLRF    _flag
                      00358 ;       .line   49; "main.c"    TMR0_Update(); //the whole program logic is called in this function.
0060   ???? ????      00359         PAGESEL _TMR0_Update
0062   2???           00360         CALL    _TMR0_Update
gpasm-1.4.0 #1106 (Oct  6 2014) obj\Release\m   7-19-2020  20:05:22         PAGE  8


LOC    OBJECT CODE    LINE  SOURCE TEXT
  VALUE

0063   ???? ????      00361         PAGESEL $
0065   2???           00362         GOTO    _00105_DS_
0066   0008           00363         RETURN  
                      00364 ; exit point of _main
                      00365 
                      00366 
                      00367 ;       code size estimation:
                      00368 ;          47+   28 =    75 instructions (  206 byte)
                      00369 
                      00370         end
gpasm-1.4.0 #1106 (Oct  6 2014) obj\Release\m   7-19-2020  20:05:22         PAGE  9


SYMBOL TABLE
  LABEL                             VALUE

ACKDT                             00000005
ACKEN                             00000004
ACKSTAT                           00000006
ADCON0                            0000001F
ADCON1                            0000009F
ADCS0                             00000006
ADCS1                             00000007
ADCS2                             00000006
ADDEN                             00000003
ADFM                              00000007
ADIE                              00000006
ADIF                              00000006
ADON                              00000000
ADRESH                            0000001E
ADRESL                            0000009E
BCLIE                             00000003
BCLIF                             00000003
BF                                00000000
BRGH                              00000002
C                                 00000000
C1INV                             00000004
C1OUT                             00000006
C2INV                             00000005
C2OUT                             00000007
CCP1CON                           00000017
CCP1IE                            00000002
CCP1IF                            00000002
CCP1M0                            00000000
CCP1M1                            00000001
CCP1M2                            00000002
CCP1M3                            00000003
CCP1X                             00000005
CCP1Y                             00000004
CCP2CON                           0000001D
CCP2IE                            00000000
CCP2IF                            00000000
CCP2M0                            00000000
CCP2M1                            00000001
CCP2M2                            00000002
CCP2M3                            00000003
CCP2X                             00000005
CCP2Y                             00000004
CCPR1                             00000015
CCPR1H                            00000016
CCPR1L                            00000015
CCPR2                             0000001B
CCPR2H                            0000001C
CCPR2L                            0000001B
CHS0                              00000003
CHS1                              00000004
CHS2                              00000005
CIS                               00000003
CKE                               00000006
gpasm-1.4.0 #1106 (Oct  6 2014) obj\Release\m   7-19-2020  20:05:22         PAGE 10


SYMBOL TABLE
  LABEL                             VALUE 

CKP                               00000004
CM0                               00000000
CM1                               00000001
CM2                               00000002
CMCON                             0000009C
CMIE                              00000006
CMIF                              00000006
CREN                              00000004
CSRC                              00000007
CVR0                              00000000
CVR1                              00000001
CVR2                              00000002
CVR3                              00000003
CVRCON                            0000009D
CVREN                             00000007
CVROE                             00000006
CVRR                              00000005
D                                 00000005
DATA_ADDRESS                      00000005
DC                                00000001
D_A                               00000005
D_NOT_A                           00000005
EEADR                             0000010D
EEADRH                            0000010F
EECON1                            0000018C
EECON2                            0000018D
EEDATA                            0000010C
EEDATH                            0000010E
EEIE                              00000004
EEIF                              00000004
EEPGD                             00000007
F                                 00000001
FERR                              00000002
FSR                               00000004
GCEN                              00000007
GIE                               00000007
GO                                00000002
GO_DONE                           00000002
GO_NOT_DONE                       00000002
I2C_DATA                          00000005
I2C_READ                          00000002
I2C_START                         00000003
I2C_STOP                          00000004
IBF                               00000007
IBOV                              00000005
INDF                              00000000
INTCON                            0000000B
INTE                              00000004
INTEDG                            00000006
INTF                              00000001
IRP                               00000007
NOT_A                             00000005
NOT_ADDRESS                       00000005
gpasm-1.4.0 #1106 (Oct  6 2014) obj\Release\m   7-19-2020  20:05:22         PAGE 11


SYMBOL TABLE
  LABEL                             VALUE 

NOT_BO                            00000000
NOT_BOR                           00000000
NOT_DONE                          00000002
NOT_PD                            00000003
NOT_POR                           00000001
NOT_RBPU                          00000007
NOT_RC8                           00000006
NOT_T1SYNC                        00000002
NOT_TO                            00000004
NOT_TX8                           00000006
NOT_W                             00000002
NOT_WRITE                         00000002
OBF                               00000006
OERR                              00000001
OPTION_REG                        00000081
P                                 00000004
PCFG0                             00000000
PCFG1                             00000001
PCFG2                             00000002
PCFG3                             00000003
PCL                               00000002
PCLATH                            0000000A
PCON                              0000008E
PEIE                              00000006
PEN                               00000002
PIE1                              0000008C
PIE2                              0000008D
PIR1                              0000000C
PIR2                              0000000D
PORTA                             00000005
PORTB                             00000006
PORTC                             00000007
PORTD                             00000008
PORTE                             00000009
PR2                               00000092
PS0                               00000000
PS1                               00000001
PS2                               00000002
PSA                               00000003
PSAVE                             00000070
PSPIE                             00000007
PSPIF                             00000007
PSPMODE                           00000004
R                                 00000002
RA0                               00000000
RA1                               00000001
RA2                               00000002
RA3                               00000003
RA4                               00000004
RA5                               00000005
RB0                               00000000
RB1                               00000001
RB2                               00000002
gpasm-1.4.0 #1106 (Oct  6 2014) obj\Release\m   7-19-2020  20:05:22         PAGE 12


SYMBOL TABLE
  LABEL                             VALUE 

RB3                               00000003
RB4                               00000004
RB5                               00000005
RB6                               00000006
RB7                               00000007
RBIE                              00000003
RBIF                              00000000
RC0                               00000000
RC1                               00000001
RC2                               00000002
RC3                               00000003
RC4                               00000004
RC5                               00000005
RC6                               00000006
RC7                               00000007
RC8_9                             00000006
RC9                               00000006
RCD8                              00000000
RCEN                              00000003
RCIE                              00000005
RCIF                              00000005
RCREG                             0000001A
RCSTA                             00000018
RD                                00000000
RD0                               00000000
RD1                               00000001
RD2                               00000002
RD3                               00000003
RD4                               00000004
RD5                               00000005
RD6                               00000006
RD7                               00000007
RE0                               00000000
RE1                               00000001
RE2                               00000002
READ_WRITE                        00000002
RP0                               00000005
RP1                               00000006
RSEN                              00000001
RX9                               00000006
RX9D                              00000000
R_NOT_W                           00000002
R_W                               00000002
S                                 00000003
SEN                               00000000
SMP                               00000007
SPBRG                             00000099
SPEN                              00000007
SREN                              00000005
SSAVE                             00000071
SSPADD                            00000093
SSPBUF                            00000013
SSPCON                            00000014
gpasm-1.4.0 #1106 (Oct  6 2014) obj\Release\m   7-19-2020  20:05:22         PAGE 13


SYMBOL TABLE
  LABEL                             VALUE 

SSPCON2                           00000091
SSPEN                             00000005
SSPIE                             00000003
SSPIF                             00000003
SSPM0                             00000000
SSPM1                             00000001
SSPM2                             00000002
SSPM3                             00000003
SSPOV                             00000006
SSPSTAT                           00000094
STATUS                            00000003
STK00                             0000007F
STK01                             0000007E
STK02                             0000007D
STK03                             0000007C
STK04                             0000007B
STK05                             0000007A
STK06                             00000079
STK07                             00000078
STK08                             00000077
STK09                             00000076
STK10                             00000075
STK11                             00000074
STK12                             00000073
SYNC                              00000004
T0CS                              00000005
T0IE                              00000005
T0IF                              00000002
T0SE                              00000004
T1CKPS0                           00000004
T1CKPS1                           00000005
T1CON                             00000010
T1INSYNC                          00000002
T1OSCEN                           00000003
T1SYNC                            00000002
T2CKPS0                           00000000
T2CKPS1                           00000001
T2CON                             00000012
TMR0                              00000001
TMR0IE                            00000005
TMR0IF                            00000002
TMR1                              0000000E
TMR1CS                            00000001
TMR1H                             0000000F
TMR1IE                            00000000
TMR1IF                            00000000
TMR1L                             0000000E
TMR1ON                            00000000
TMR2                              00000011
TMR2IE                            00000001
TMR2IF                            00000001
TMR2ON                            00000002
TOUTPS0                           00000003
gpasm-1.4.0 #1106 (Oct  6 2014) obj\Release\m   7-19-2020  20:05:22         PAGE 14


SYMBOL TABLE
  LABEL                             VALUE 

TOUTPS1                           00000004
TOUTPS2                           00000005
TOUTPS3                           00000006
TRISA                             00000085
TRISA0                            00000000
TRISA1                            00000001
TRISA2                            00000002
TRISA3                            00000003
TRISA4                            00000004
TRISA5                            00000005
TRISB                             00000086
TRISB0                            00000000
TRISB1                            00000001
TRISB2                            00000002
TRISB3                            00000003
TRISB4                            00000004
TRISB5                            00000005
TRISB6                            00000006
TRISB7                            00000007
TRISC                             00000087
TRISC0                            00000000
TRISC1                            00000001
TRISC2                            00000002
TRISC3                            00000003
TRISC4                            00000004
TRISC5                            00000005
TRISC6                            00000006
TRISC7                            00000007
TRISD                             00000088
TRISD0                            00000000
TRISD1                            00000001
TRISD2                            00000002
TRISD3                            00000003
TRISD4                            00000004
TRISD5                            00000005
TRISD6                            00000006
TRISD7                            00000007
TRISE                             00000089
TRISE0                            00000000
TRISE1                            00000001
TRISE2                            00000002
TRMT                              00000001
TX8_9                             00000006
TX9                               00000006
TX9D                              00000000
TXD8                              00000000
TXEN                              00000005
TXIE                              00000004
TXIF                              00000004
TXREG                             00000019
TXSTA                             00000098
UA                                00000001
W                                 00000000
gpasm-1.4.0 #1106 (Oct  6 2014) obj\Release\m   7-19-2020  20:05:22         PAGE 15


SYMBOL TABLE
  LABEL                             VALUE 

WCOL                              00000007
WR                                00000001
WREN                              00000002
WRERR                             00000003
WSAVE                             00000072
Z                                 00000002
_00105_DS_                        00000059
_ADCON0                           00000000
_ADCON0bits                       00000000
_ADCON1                           00000000
_ADCON1bits                       00000000
_ADC_GetResult                    00000000
_ADC_Init                         00000000
_ADC_Update                       00000000
_ADRESH                           00000000
_ADRESL                           00000000
_BODEN_OFF                        00003FBF
_BODEN_ON                         00003FFF
_BOREN_OFF                        00003FBF
_BOREN_ON                         00003FFF
_CCP1CON                          00000000
_CCP1CONbits                      00000000
_CCP2CON                          00000000
_CCP2CONbits                      00000000
_CCPR1                            00000000
_CCPR1H                           00000000
_CCPR1L                           00000000
_CCPR2                            00000000
_CCPR2H                           00000000
_CCPR2L                           00000000
_CMCON                            00000000
_CMCONbits                        00000000
_CONFIG                           00002007
_CPD_OFF                          00003FFF
_CPD_ON                           00003EFF
_CP_ALL                           00001FFF
_CP_OFF                           00003FFF
_CP_ON                            00001FFF
_CVRCON                           00000000
_CVRCONbits                       00000000
_Cooler_GetState                  00000000
_Cooler_Init                      00000000
_Cooler_SetState                  00000000
_Cooler_update                    00000000
_Counters                         00000000
_DEBUG_OFF                        00003FFF
_DEBUG_ON                         000037FF
_DEVID1                           00002006
_EEADR                            00000000
_EEADRH                           00000000
_EECON1                           00000000
_EECON1bits                       00000000
_EECON2                           00000000
gpasm-1.4.0 #1106 (Oct  6 2014) obj\Release\m   7-19-2020  20:05:22         PAGE 16


SYMBOL TABLE
  LABEL                             VALUE 

_EEDATA                           00000000
_EEDATH                           00000000
_FOSC_EXTRC                       00003FFF
_FOSC_HS                          00003FFE
_FOSC_LP                          00003FFC
_FOSC_XT                          00003FFD
_FSR                              00000000
_Flags                            00000000
_GPIO_GetPortPinState             00000000
_GPIO_InitPort                    00000000
_GPIO_InitPortPin                 00000000
_GPIO_SetPortPinState             00000000
_GPIO_SetPortState                00000000
_GPIO_Update                      00000000
_HS_OSC                           00003FFE
_Heater_GetState                  00000000
_Heater_Init                      00000000
_Heater_update                    00000000
_I2C_Begin                        00000000
_I2C_End                          00000000
_I2C_Hold                         00000000
_I2C_Init                         00000000
_I2C_Read                         00000000
_I2C_Write                        00000000
_IDLOC0                           00002000
_IDLOC1                           00002001
_IDLOC2                           00002002
_IDLOC3                           00002003
_INDF                             00000000
_INTCON                           00000000
_INTCONbits                       00000000
_ISR                              00000000
_LED_GetState                     00000000
_LED_Init                         00000000
_LED_Update                       00000000
_LP_OSC                           00003FFC
_LVP_OFF                          00003F7F
_LVP_ON                           00003FFF
_OPTION_REG                       00000000
_OPTION_REGbits                   00000000
_PB_GetState                      00000000
_PB_Init                          00000000
_PB_Update                        00000000
_PCL                              00000000
_PCLATH                           00000000
_PCON                             00000000
_PCONbits                         00000000
_PIE1                             00000000
_PIE1bits                         00000000
_PIE2                             00000000
_PIE2bits                         00000000
_PIR1                             00000000
_PIR1bits                         00000000
gpasm-1.4.0 #1106 (Oct  6 2014) obj\Release\m   7-19-2020  20:05:22         PAGE 17


SYMBOL TABLE
  LABEL                             VALUE 

_PIR2                             00000000
_PIR2bits                         00000000
_PORTA                            00000000
_PORTAbits                        00000000
_PORTB                            00000000
_PORTBbits                        00000000
_PORTC                            00000000
_PORTCbits                        00000000
_PORTD                            00000000
_PORTDbits                        00000000
_PORTE                            00000000
_PORTEbits                        00000000
_PR2                              00000000
_PWRTE_OFF                        00003FFF
_PWRTE_ON                         00003FF7
_RB0Int_update                    00000000
_RB0_INT_Init                     00000000
_RCREG                            00000000
_RCSTA                            00000000
_RCSTAbits                        00000000
_RC_OSC                           00003FFF
_Readings                         00000000
_SPBRG                            00000000
_SSD_GET_Symbol                   00000000
_SSD_GET_state                    00000000
_SSD_Init                         00000000
_SSD_SET_Symbol                   00000000
_SSD_SET_state                    00000000
_SSD_update                       00000000
_SSPADD                           00000000
_SSPBUF                           00000000
_SSPCON                           00000000
_SSPCON2                          00000000
_SSPCON2bits                      00000000
_SSPCONbits                       00000000
_SSPSTAT                          00000000
_SSPSTATbits                      00000000
_STATUS                           00000000
_STATUSbits                       00000000
_SettingMode_update               00000000
_Start_conversion_Int             00000000
_T1CON                            00000000
_T1CONbits                        00000000
_T2CON                            00000000
_T2CONbits                        00000000
_TMR0                             00000000
_TMR0_Init                        00000000
_TMR0_Start                       00000000
_TMR0_Update                      00000000
_TMR1                             00000000
_TMR1H                            00000000
_TMR1L                            00000000
_TMR2                             00000000
gpasm-1.4.0 #1106 (Oct  6 2014) obj\Release\m   7-19-2020  20:05:22         PAGE 18


SYMBOL TABLE
  LABEL                             VALUE 

_TRISA                            00000000
_TRISAbits                        00000000
_TRISB                            00000000
_TRISBbits                        00000000
_TRISC                            00000000
_TRISCbits                        00000000
_TRISD                            00000000
_TRISDbits                        00000000
_TRISE                            00000000
_TRISEbits                        00000000
_TXREG                            00000000
_TXSTA                            00000000
_TXSTAbits                        00000000
_Temprature_Init                  00000000
_Temprature_update                00000000
_UTIL_DelayMS                     00000000
_WDTE_OFF                         00003FFB
_WDTE_ON                          00003FFF
_WDT_OFF                          00003FFB
_WDT_ON                           00003FFF
_WRT_1FOURTH                      00003BFF
_WRT_256                          00003DFF
_WRT_HALF                         000039FF
_WRT_OFF                          00003FFF
_XT_OSC                           00003FFD
__16F877A                         00000001
__CODE_END                        00001FFF
__CODE_START                      00000000
__COMMON_RAM_END                  0000007F
__COMMON_RAM_START                00000070
__EEPROM_END                      000021FF
__EEPROM_START                    00002100
__VECTOR_INT                      00000004
__VECTOR_RESET                    00000000
__sdcc_gsinit_startup             00000000
_code_main_0006                   00000006
_code_main_000E                   0000000E
_code_main_0013                   00000013
_code_main_001D                   0000001D
_code_main_0027                   00000027
_code_main_002C                   0000002C
_code_main_0031                   00000031
_code_main_0039                   00000039
_code_main_003E                   0000003E
_code_main_004A                   0000004A
_code_main_0052                   00000052
_code_main_0057                   00000057
_code_main_0063                   00000063
_e2pex_update                     00000000
_e2pext_r                         00000000
_e2pext_w                         00000000
_flag                             00000000
_main                             00000000

gpasm-1.4.0 #1106 (Oct  6 2014) obj\Release\m   7-19-2020  20:05:22         PAGE 19




Errors   :     0
Warnings :     0 reported,     0 suppressed
Messages :     0 reported,     0 suppressed

