gpasm-1.4.0 #1106 (Oct  6 2014) obj\Release\s   7-19-2020  20:05:24         PAGE  1


LOC    OBJECT CODE    LINE  SOURCE TEXT
  VALUE

                      00001 ;--------------------------------------------------------
                      00002 ; File Created by SDCC : free open source ANSI-C Compiler
                      00003 ; Version 3.5.0 #9253 (Jun 20 2015) (MINGW32)
                      00004 ; This file was generated Sun Jul 19 20:05:24 2020
                      00005 ;--------------------------------------------------------
                      00006 ; PIC port for the 14-bit core
                      00007 ;--------------------------------------------------------
                      00008 ;       .file   "setting_mode.c"
                      00009         list    p=16f877a
                      00010         radix dec
                      00011         include "p16f877a.inc"
                      00001         LIST
                      00002 
                      00003 ;==========================================================================
                      00004 ; Build date : Aug 07 2014
                      00005 ;  MPASM PIC16F877A processor include
                      00006 ; 
                      00007 ;  (c) Copyright 1999-2014 Microchip Technology, All rights reserved
                      00008 ;==========================================================================
                      00009 
                      00567         LIST
                      00012 ;--------------------------------------------------------
                      00013 ; external declarations
                      00014 ;--------------------------------------------------------
  0000                00015         extern  _GPIO_InitPortPin
  0000                00016         extern  _GPIO_InitPort
  0000                00017         extern  _GPIO_Update
  0000                00018         extern  _GPIO_SetPortPinState
  0000                00019         extern  _GPIO_SetPortState
  0000                00020         extern  _GPIO_GetPortPinState
  0000                00021         extern  _PB_Init
  0000                00022         extern  _PB_Update
  0000                00023         extern  _PB_GetState
  0000                00024         extern  _ADC_Init
  0000                00025         extern  _ADC_Update
  0000                00026         extern  _ADC_GetResult
  0000                00027         extern  _Start_conversion_Int
  0000                00028         extern  _Temprature_Init
  0000                00029         extern  _Temprature_update
  0000                00030         extern  _LED_Init
  0000                00031         extern  _LED_GetState
  0000                00032         extern  _LED_Update
  0000                00033         extern  _Heater_Init
  0000                00034         extern  _Heater_update
  0000                00035         extern  _Heater_GetState
  0000                00036         extern  _Cooler_Init
  0000                00037         extern  _Cooler_SetState
  0000                00038         extern  _Cooler_GetState
  0000                00039         extern  _Cooler_update
  0000                00040         extern  _I2C_Init
  0000                00041         extern  _I2C_Hold
  0000                00042         extern  _I2C_Begin
  0000                00043         extern  _I2C_End
gpasm-1.4.0 #1106 (Oct  6 2014) obj\Release\s   7-19-2020  20:05:24         PAGE  2


LOC    OBJECT CODE    LINE  SOURCE TEXT
  VALUE

  0000                00044         extern  _I2C_Write
  0000                00045         extern  _I2C_Read
  0000                00046         extern  _e2pext_r
  0000                00047         extern  _e2pext_w
  0000                00048         extern  _e2pex_update
  0000                00049         extern  _TMR0_Init
  0000                00050         extern  _TMR0_Update
  0000                00051         extern  _TMR0_Start
  0000                00052         extern  _UTIL_DelayMS
  0000                00053         extern  _SSD_Init
  0000                00054         extern  _SSD_SET_Symbol
  0000                00055         extern  _SSD_SET_state
  0000                00056         extern  _SSD_GET_state
  0000                00057         extern  _SSD_GET_Symbol
  0000                00058         extern  _SSD_update
  0000                00059         extern  _STATUSbits
  0000                00060         extern  _PORTAbits
  0000                00061         extern  _PORTBbits
  0000                00062         extern  _PORTCbits
  0000                00063         extern  _PORTDbits
  0000                00064         extern  _PORTEbits
  0000                00065         extern  _INTCONbits
  0000                00066         extern  _PIR1bits
  0000                00067         extern  _PIR2bits
  0000                00068         extern  _T1CONbits
  0000                00069         extern  _T2CONbits
  0000                00070         extern  _SSPCONbits
  0000                00071         extern  _CCP1CONbits
  0000                00072         extern  _RCSTAbits
  0000                00073         extern  _CCP2CONbits
  0000                00074         extern  _ADCON0bits
  0000                00075         extern  _OPTION_REGbits
  0000                00076         extern  _TRISAbits
  0000                00077         extern  _TRISBbits
  0000                00078         extern  _TRISCbits
  0000                00079         extern  _TRISDbits
  0000                00080         extern  _TRISEbits
  0000                00081         extern  _PIE1bits
  0000                00082         extern  _PIE2bits
  0000                00083         extern  _PCONbits
  0000                00084         extern  _SSPCON2bits
  0000                00085         extern  _SSPSTATbits
  0000                00086         extern  _TXSTAbits
  0000                00087         extern  _CMCONbits
  0000                00088         extern  _CVRCONbits
  0000                00089         extern  _ADCON1bits
  0000                00090         extern  _EECON1bits
  0000                00091         extern  _INDF
  0000                00092         extern  _TMR0
  0000                00093         extern  _PCL
  0000                00094         extern  _STATUS
  0000                00095         extern  _FSR
  0000                00096         extern  _PORTA
gpasm-1.4.0 #1106 (Oct  6 2014) obj\Release\s   7-19-2020  20:05:24         PAGE  3


LOC    OBJECT CODE    LINE  SOURCE TEXT
  VALUE

  0000                00097         extern  _PORTB
  0000                00098         extern  _PORTC
  0000                00099         extern  _PORTD
  0000                00100         extern  _PORTE
  0000                00101         extern  _PCLATH
  0000                00102         extern  _INTCON
  0000                00103         extern  _PIR1
  0000                00104         extern  _PIR2
  0000                00105         extern  _TMR1
  0000                00106         extern  _TMR1L
  0000                00107         extern  _TMR1H
  0000                00108         extern  _T1CON
  0000                00109         extern  _TMR2
  0000                00110         extern  _T2CON
  0000                00111         extern  _SSPBUF
  0000                00112         extern  _SSPCON
  0000                00113         extern  _CCPR1
  0000                00114         extern  _CCPR1L
  0000                00115         extern  _CCPR1H
  0000                00116         extern  _CCP1CON
  0000                00117         extern  _RCSTA
  0000                00118         extern  _TXREG
  0000                00119         extern  _RCREG
  0000                00120         extern  _CCPR2
  0000                00121         extern  _CCPR2L
  0000                00122         extern  _CCPR2H
  0000                00123         extern  _CCP2CON
  0000                00124         extern  _ADRESH
  0000                00125         extern  _ADCON0
  0000                00126         extern  _OPTION_REG
  0000                00127         extern  _TRISA
  0000                00128         extern  _TRISB
  0000                00129         extern  _TRISC
  0000                00130         extern  _TRISD
  0000                00131         extern  _TRISE
  0000                00132         extern  _PIE1
  0000                00133         extern  _PIE2
  0000                00134         extern  _PCON
  0000                00135         extern  _SSPCON2
  0000                00136         extern  _PR2
  0000                00137         extern  _SSPADD
  0000                00138         extern  _SSPSTAT
  0000                00139         extern  _TXSTA
  0000                00140         extern  _SPBRG
  0000                00141         extern  _CMCON
  0000                00142         extern  _CVRCON
  0000                00143         extern  _ADRESL
  0000                00144         extern  _ADCON1
  0000                00145         extern  _EEDATA
  0000                00146         extern  _EEADR
  0000                00147         extern  _EEDATH
  0000                00148         extern  _EEADRH
  0000                00149         extern  _EECON1
gpasm-1.4.0 #1106 (Oct  6 2014) obj\Release\s   7-19-2020  20:05:24         PAGE  4


LOC    OBJECT CODE    LINE  SOURCE TEXT
  VALUE

  0000                00150         extern  _EECON2
                      00151 
  0000                00152         extern PSAVE
  0000                00153         extern SSAVE
  0000                00154         extern WSAVE
  0000                00155         extern STK12
  0000                00156         extern STK11
  0000                00157         extern STK10
  0000                00158         extern STK09
  0000                00159         extern STK08
  0000                00160         extern STK07
  0000                00161         extern STK06
  0000                00162         extern STK05
  0000                00163         extern STK04
  0000                00164         extern STK03
  0000                00165         extern STK02
  0000                00166         extern STK01
  0000                00167         extern STK00
                      00168 ;--------------------------------------------------------
                      00169 ; global declarations
                      00170 ;--------------------------------------------------------
  0000                00171         global  _SettingMode_update
  0000                00172         global  _Counters
  0000                00173         global  _Readings
  0000                00174         global  _Flags
                      00175 
                      00176 ;--------------------------------------------------------
                      00177 ; global definitions
                      00178 ;--------------------------------------------------------
                      00179 UD_setting_mode_0       udata
0000                  00180 _Counters       res     10
                      00181 
                      00182 UD_setting_mode_1       udata
0000                  00183 _Readings       res     8
                      00184 
                      00185 UD_setting_mode_2       udata
0000                  00186 _Flags  res     6
                      00187 
                      00188 ;--------------------------------------------------------
                      00189 ; absolute symbol definitions
                      00190 ;--------------------------------------------------------
                      00191 ;--------------------------------------------------------
                      00192 ; compiler-defined variables
                      00193 ;--------------------------------------------------------
                      00194 UDL_setting_mode_0      udata
0000                  00195 r0x1028 res     1
0001                  00196 r0x1029 res     1
0002                  00197 r0x101C res     1
0003                  00198 r0x101D res     1
0004                  00199 r0x101E res     1
0005                  00200 r0x101F res     1
0006                  00201 r0x1020 res     1
0007                  00202 r0x1021 res     1
gpasm-1.4.0 #1106 (Oct  6 2014) obj\Release\s   7-19-2020  20:05:24         PAGE  5


LOC    OBJECT CODE    LINE  SOURCE TEXT
  VALUE

0008                  00203 r0x1022 res     1
0009                  00204 r0x1023 res     1
000A                  00205 r0x1024 res     1
000B                  00206 r0x1025 res     1
000C                  00207 r0x1026 res     1
000D                  00208 r0x1027 res     1
000E                  00209 r0x1018 res     1
000F                  00210 r0x1019 res     1
0010                  00211 r0x101A res     1
0011                  00212 r0x101B res     1
                      00213 ;--------------------------------------------------------
                      00214 ; initialized data
                      00215 ;--------------------------------------------------------
                      00216 ;--------------------------------------------------------
                      00217 ; overlayable items in internal ram 
                      00218 ;--------------------------------------------------------
                      00219 ;       udata_ovr
                      00220 ;--------------------------------------------------------
                      00221 ; code
                      00222 ;--------------------------------------------------------
                      00223 code_setting_mode       code
                      00224 ;***
                      00225 ;  pBlock Stats: dbName = C
                      00226 ;***
                      00227 ;entry:  _SettingMode_OFF_mode  ;Function start
                      00228 ; 2 exit points
                      00229 ;has an exit
                      00230 ;functions called:
                      00231 ;   _SSD_SET_state
                      00232 ;   _SSD_SET_state
                      00233 ;   _SSD_SET_state
                      00234 ;   _SSD_SET_state
                      00235 ;1 compiler assigned register :
                      00236 ;   STK00
                      00237 ;; Starting pCode block
0000                  00238 _SettingMode_OFF_mode   ;Function start
                      00239 ; 2 exit points
                      00240 ;       .line   72; "setting_mode.c"    SSD_SET_state(SSD_MR,SSD_OFF);
0000   3000           00241         MOVLW   0x00
0001   00??           00242         MOVWF   STK00
0002   3000           00243         MOVLW   0x00
0003   ???? ????      00244         PAGESEL _SSD_SET_state
0005   2???           00245         CALL    _SSD_SET_state
0006   ???? ????      00246         PAGESEL $
                      00247 ;       .line   73; "setting_mode.c"    SSD_SET_state(SSD_R,SSD_OFF);
0008   3000           00248         MOVLW   0x00
0009   00??           00249         MOVWF   STK00
000A   3001           00250         MOVLW   0x01
000B   ???? ????      00251         PAGESEL _SSD_SET_state
000D   2???           00252         CALL    _SSD_SET_state
000E   ???? ????      00253         PAGESEL $
                      00254 ;;/home/sdcc-builder/build/sdcc-build/orig/sdcc/src/pic14/gen.c:6461: size=0, offset=0, AOP_TYPE(res)=8
                      00255 ;       .line   75; "setting_mode.c"    Flags.Heater_Operation = OFF ; //Turn off The heater element
gpasm-1.4.0 #1106 (Oct  6 2014) obj\Release\s   7-19-2020  20:05:24         PAGE  6


LOC    OBJECT CODE    LINE  SOURCE TEXT
  VALUE

0010   ???? ????      00256         BANKSEL _Flags
0012   01??           00257         CLRF    (_Flags + 2)
                      00258 ;;/home/sdcc-builder/build/sdcc-build/orig/sdcc/src/pic14/gen.c:6461: size=0, offset=0, AOP_TYPE(res)=8
                      00259 ;       .line   76; "setting_mode.c"    Flags.Cooler_Operation = OFF ; //Turn off Heater element
0013   01??           00260         CLRF    (_Flags + 3)
                      00261 ;;/home/sdcc-builder/build/sdcc-build/orig/sdcc/src/pic14/gen.c:6461: size=0, offset=0, AOP_TYPE(res)=8
                      00262 ;       .line   78; "setting_mode.c"    Flags.Toggle_led = 2;        //Turn off Warning Led
0014   3002           00263         MOVLW   0x02
0015   00??           00264         MOVWF   (_Flags + 1)
                      00265 ;;/home/sdcc-builder/build/sdcc-build/orig/sdcc/src/pic14/gen.c:6461: size=1, offset=0, AOP_TYPE(res)=8
                      00266 ;       .line   80; "setting_mode.c"    Counters.FixedMode_counter  = 0 ;
0016   ???? ????      00267         BANKSEL _Counters
0018   01??           00268         CLRF    (_Counters + 0)
                      00269 ;;/home/sdcc-builder/build/sdcc-build/orig/sdcc/src/pic14/gen.c:6461: size=0, offset=1, AOP_TYPE(res)=8
0019   01??           00270         CLRF    (_Counters + 1)
                      00271 ;;/home/sdcc-builder/build/sdcc-build/orig/sdcc/src/pic14/gen.c:6461: size=1, offset=0, AOP_TYPE(res)=8
                      00272 ;       .line   81; "setting_mode.c"    Counters.Blink_counter      = 0 ;
001A   01??           00273         CLRF    (_Counters + 2)
                      00274 ;;/home/sdcc-builder/build/sdcc-build/orig/sdcc/src/pic14/gen.c:6461: size=0, offset=1, AOP_TYPE(res)=8
001B   01??           00275         CLRF    (_Counters + 3)
                      00276 ;;/home/sdcc-builder/build/sdcc-build/orig/sdcc/src/pic14/gen.c:6461: size=3, offset=0, AOP_TYPE(res)=8
                      00277 ;       .line   82; "setting_mode.c"    Readings.temp_read          = 0 ;
001C   ???? ????      00278         BANKSEL _Readings
001E   01??           00279         CLRF    (_Readings + 0)
                      00280 ;;/home/sdcc-builder/build/sdcc-build/orig/sdcc/src/pic14/gen.c:6461: size=2, offset=1, AOP_TYPE(res)=8
001F   01??           00281         CLRF    (_Readings + 1)
                      00282 ;;/home/sdcc-builder/build/sdcc-build/orig/sdcc/src/pic14/gen.c:6461: size=1, offset=2, AOP_TYPE(res)=8
0020   01??           00283         CLRF    (_Readings + 2)
                      00284 ;;/home/sdcc-builder/build/sdcc-build/orig/sdcc/src/pic14/gen.c:6461: size=0, offset=3, AOP_TYPE(res)=8
0021   01??           00285         CLRF    (_Readings + 3)
                      00286 ;;/home/sdcc-builder/build/sdcc-build/orig/sdcc/src/pic14/gen.c:6461: size=0, offset=0, AOP_TYPE(res)=8
                      00287 ;       .line   83; "setting_mode.c"    Flags.next_state = 0 ;
0022   ???? ????      00288         BANKSEL _Flags
0024   01??           00289         CLRF    (_Flags + 0)
                      00290 ;;/home/sdcc-builder/build/sdcc-build/orig/sdcc/src/pic14/gen.c:6461: size=1, offset=0, AOP_TYPE(res)=8
                      00291 ;       .line   84; "setting_mode.c"    Counters.FixedMode_counter = 250; //Turn on to fixed mode
0025   30FA           00292         MOVLW   0xfa
0026   ???? ????      00293         BANKSEL _Counters
0028   00??           00294         MOVWF   (_Counters + 0)
                      00295 ;;/home/sdcc-builder/build/sdcc-build/orig/sdcc/src/pic14/gen.c:6461: size=0, offset=1, AOP_TYPE(res)=8
0029   01??           00296         CLRF    (_Counters + 1)
002A   0008           00297         RETURN  
                      00298 ; exit point of _SettingMode_OFF_mode
                      00299 
                      00300 ;***
                      00301 ;  pBlock Stats: dbName = C
                      00302 ;***
                      00303 ;entry:  _SettingMode_Blinking_mode     ;Function start
                      00304 ; 2 exit points
                      00305 ;has an exit
                      00306 ;4 compiler assigned registers:
                      00307 ;   r0x1018
                      00308 ;   r0x1019
gpasm-1.4.0 #1106 (Oct  6 2014) obj\Release\s   7-19-2020  20:05:24         PAGE  7


LOC    OBJECT CODE    LINE  SOURCE TEXT
  VALUE

                      00309 ;   r0x101A
                      00310 ;   r0x101B
                      00311 ;; Starting pCode block
002B                  00312 _SettingMode_Blinking_mode      ;Function start
                      00313 ; 2 exit points
                      00314 ;;/home/sdcc-builder/build/sdcc-build/orig/sdcc/src/pic14/gen.c:6461: size=0, offset=0, AOP_TYPE(res)=8
                      00315 ;       .line   56; "setting_mode.c"    Flags.Heater_Operation = OFF ; //Turn off The heater element
002B   ???? ????      00316         BANKSEL _Flags
002D   01??           00317         CLRF    (_Flags + 2)
                      00318 ;;/home/sdcc-builder/build/sdcc-build/orig/sdcc/src/pic14/gen.c:6461: size=0, offset=0, AOP_TYPE(res)=8
                      00319 ;       .line   57; "setting_mode.c"    Flags.Cooler_Operation = OFF ;//Turn off Heater element
002E   01??           00320         CLRF    (_Flags + 3)
                      00321 ;;/home/sdcc-builder/build/sdcc-build/orig/sdcc/src/pic14/gen.c:6461: size=0, offset=0, AOP_TYPE(res)=8
                      00322 ;       .line   58; "setting_mode.c"    Flags.Toggle_led = 2;      //Turn off Heating element Led
002F   3002           00323         MOVLW   0x02
0030   00??           00324         MOVWF   (_Flags + 1)
                      00325 ;       .line   60; "setting_mode.c"    if(Counters.Blink_counter == 25)
0031   ???? ????      00326         BANKSEL _Counters
0033   08??           00327         MOVF    (_Counters + 2),W
0034   ???? ????      00328         BANKSEL r0x1018
0036   00??           00329         MOVWF   r0x1018
0037   ???? ????      00330         BANKSEL _Counters
0039   08??           00331         MOVF    (_Counters + 3),W
003A   ???? ????      00332         BANKSEL r0x1019
003C   00??           00333         MOVWF   r0x1019
003D   08??           00334         MOVF    r0x1018,W
003E   3A19           00335         XORLW   0x19
003F   1D03           00336         BTFSS   STATUS,2
0040   2???           00337         GOTO    _00149_DS_
0041   08??           00338         MOVF    r0x1019,W
0042   3A00           00339         XORLW   0x00
0043   1D03           00340         BTFSS   STATUS,2
0044   2???           00341         GOTO    _00149_DS_
                      00342 ;       .line   62; "setting_mode.c"    Flags.next_state^=1;         //toggle SSD State
0045   ???? ????      00343         BANKSEL _Flags
0047   08??           00344         MOVF    (_Flags + 0),W
0048   ???? ????      00345         BANKSEL r0x1018
004A   00??           00346         MOVWF   r0x1018
004B   3001           00347         MOVLW   0x01
004C   06??           00348         XORWF   r0x1018,F
                      00349 ;;/home/sdcc-builder/build/sdcc-build/orig/sdcc/src/pic14/gen.c:6461: size=0, offset=0, AOP_TYPE(res)=8
004D   08??           00350         MOVF    r0x1018,W
004E   ???? ????      00351         BANKSEL _Flags
0050   00??           00352         MOVWF   (_Flags + 0)
                      00353 ;;/home/sdcc-builder/build/sdcc-build/orig/sdcc/src/pic14/gen.c:6461: size=1, offset=0, AOP_TYPE(res)=8
                      00354 ;       .line   63; "setting_mode.c"    Counters.Blink_counter = 0 ;
0051   ???? ????      00355         BANKSEL _Counters
0053   01??           00356         CLRF    (_Counters + 2)
                      00357 ;;/home/sdcc-builder/build/sdcc-build/orig/sdcc/src/pic14/gen.c:6461: size=0, offset=1, AOP_TYPE(res)=8
0054   01??           00358         CLRF    (_Counters + 3)
0055                  00359 _00149_DS_
                      00360 ;       .line   65; "setting_mode.c"    Counters.Blink_counter++;
0055   ???? ????      00361         BANKSEL _Counters
gpasm-1.4.0 #1106 (Oct  6 2014) obj\Release\s   7-19-2020  20:05:24         PAGE  8


LOC    OBJECT CODE    LINE  SOURCE TEXT
  VALUE

0057   08??           00362         MOVF    (_Counters + 2),W
0058   ???? ????      00363         BANKSEL r0x1018
005A   00??           00364         MOVWF   r0x1018
005B   ???? ????      00365         BANKSEL _Counters
005D   08??           00366         MOVF    (_Counters + 3),W
005E   ???? ????      00367         BANKSEL r0x1019
0060   00??           00368         MOVWF   r0x1019
0061   0A??           00369         INCF    r0x1018,F
0062   1903           00370         BTFSC   STATUS,2
0063   0A??           00371         INCF    r0x1019,F
                      00372 ;;/home/sdcc-builder/build/sdcc-build/orig/sdcc/src/pic14/gen.c:6461: size=1, offset=0, AOP_TYPE(res)=8
0064   08??           00373         MOVF    r0x1018,W
0065   ???? ????      00374         BANKSEL _Counters
0067   00??           00375         MOVWF   (_Counters + 2)
                      00376 ;;/home/sdcc-builder/build/sdcc-build/orig/sdcc/src/pic14/gen.c:6461: size=0, offset=1, AOP_TYPE(res)=8
0068   ???? ????      00377         BANKSEL r0x1019
006A   08??           00378         MOVF    r0x1019,W
006B   ???? ????      00379         BANKSEL _Counters
006D   00??           00380         MOVWF   (_Counters + 3)
                      00381 ;       .line   66; "setting_mode.c"    Counters.FixedMode_counter++;
006E   08??           00382         MOVF    (_Counters + 0),W
006F   ???? ????      00383         BANKSEL r0x1018
0071   00??           00384         MOVWF   r0x1018
0072   ???? ????      00385         BANKSEL _Counters
0074   08??           00386         MOVF    (_Counters + 1),W
0075   ???? ????      00387         BANKSEL r0x1019
0077   00??           00388         MOVWF   r0x1019
0078   0A??           00389         INCF    r0x1018,F
0079   1903           00390         BTFSC   STATUS,2
007A   0A??           00391         INCF    r0x1019,F
                      00392 ;;/home/sdcc-builder/build/sdcc-build/orig/sdcc/src/pic14/gen.c:6461: size=1, offset=0, AOP_TYPE(res)=8
007B   08??           00393         MOVF    r0x1018,W
007C   ???? ????      00394         BANKSEL _Counters
007E   00??           00395         MOVWF   (_Counters + 0)
                      00396 ;;/home/sdcc-builder/build/sdcc-build/orig/sdcc/src/pic14/gen.c:6461: size=0, offset=1, AOP_TYPE(res)=8
007F   ???? ????      00397         BANKSEL r0x1019
0081   08??           00398         MOVF    r0x1019,W
0082   ???? ????      00399         BANKSEL _Counters
0084   00??           00400         MOVWF   (_Counters + 1)
                      00401 ;       .line   67; "setting_mode.c"    Counters.e2prom_count++;
0085   08??           00402         MOVF    (_Counters + 6),W
0086   ???? ????      00403         BANKSEL r0x1018
0088   00??           00404         MOVWF   r0x1018
0089   ???? ????      00405         BANKSEL _Counters
008B   08??           00406         MOVF    (_Counters + 7),W
008C   ???? ????      00407         BANKSEL r0x1019
008E   00??           00408         MOVWF   r0x1019
008F   ???? ????      00409         BANKSEL _Counters
0091   08??           00410         MOVF    (_Counters + 8),W
0092   ???? ????      00411         BANKSEL r0x101A
0094   00??           00412         MOVWF   r0x101A
0095   ???? ????      00413         BANKSEL _Counters
0097   08??           00414         MOVF    (_Counters + 9),W
gpasm-1.4.0 #1106 (Oct  6 2014) obj\Release\s   7-19-2020  20:05:24         PAGE  9


LOC    OBJECT CODE    LINE  SOURCE TEXT
  VALUE

0098   ???? ????      00415         BANKSEL r0x101B
009A   00??           00416         MOVWF   r0x101B
009B   0A??           00417         INCF    r0x1018,F
009C   1903           00418         BTFSC   STATUS,2
009D   0A??           00419         INCF    r0x1019,F
009E   1903           00420         BTFSC   STATUS,2
009F   0A??           00421         INCF    r0x101A,F
00A0   1903           00422         BTFSC   STATUS,2
00A1   0A??           00423         INCF    r0x101B,F
                      00424 ;;/home/sdcc-builder/build/sdcc-build/orig/sdcc/src/pic14/gen.c:6461: size=3, offset=0, AOP_TYPE(res)=8
00A2   08??           00425         MOVF    r0x1018,W
00A3   ???? ????      00426         BANKSEL _Counters
00A5   00??           00427         MOVWF   (_Counters + 6)
                      00428 ;;/home/sdcc-builder/build/sdcc-build/orig/sdcc/src/pic14/gen.c:6461: size=2, offset=1, AOP_TYPE(res)=8
00A6   ???? ????      00429         BANKSEL r0x1019
00A8   08??           00430         MOVF    r0x1019,W
00A9   ???? ????      00431         BANKSEL _Counters
00AB   00??           00432         MOVWF   (_Counters + 7)
                      00433 ;;/home/sdcc-builder/build/sdcc-build/orig/sdcc/src/pic14/gen.c:6461: size=1, offset=2, AOP_TYPE(res)=8
00AC   ???? ????      00434         BANKSEL r0x101A
00AE   08??           00435         MOVF    r0x101A,W
00AF   ???? ????      00436         BANKSEL _Counters
00B1   00??           00437         MOVWF   (_Counters + 8)
                      00438 ;;/home/sdcc-builder/build/sdcc-build/orig/sdcc/src/pic14/gen.c:6461: size=0, offset=3, AOP_TYPE(res)=8
00B2   ???? ????      00439         BANKSEL r0x101B
00B4   08??           00440         MOVF    r0x101B,W
00B5   ???? ????      00441         BANKSEL _Counters
00B7   00??           00442         MOVWF   (_Counters + 9)
00B8   0008           00443         RETURN  
                      00444 ; exit point of _SettingMode_Blinking_mode
                      00445 
                      00446 ;***
                      00447 ;  pBlock Stats: dbName = C
                      00448 ;***
                      00449 ;entry:  _SettingMode_Fixed_mode        ;Function start
                      00450 ; 2 exit points
                      00451 ;has an exit
                      00452 ;12 compiler assigned registers:
                      00453 ;   r0x101C
                      00454 ;   r0x101D
                      00455 ;   r0x101E
                      00456 ;   r0x101F
                      00457 ;   r0x1020
                      00458 ;   r0x1021
                      00459 ;   r0x1022
                      00460 ;   r0x1023
                      00461 ;   r0x1024
                      00462 ;   r0x1025
                      00463 ;   r0x1026
                      00464 ;   r0x1027
                      00465 ;; Starting pCode block
00B9                  00466 _SettingMode_Fixed_mode ;Function start
                      00467 ; 2 exit points
gpasm-1.4.0 #1106 (Oct  6 2014) obj\Release\s   7-19-2020  20:05:24         PAGE 10


LOC    OBJECT CODE    LINE  SOURCE TEXT
  VALUE

                      00468 ;;/home/sdcc-builder/build/sdcc-build/orig/sdcc/src/pic14/gen.c:6461: size=0, offset=0, AOP_TYPE(res)=8
                      00469 ;       .line   37; "setting_mode.c"    Flags.next_state = 1 ; //make the SSD go into normal operation
00B9   3001           00470         MOVLW   0x01
00BA   ???? ????      00471         BANKSEL _Flags
00BC   00??           00472         MOVWF   (_Flags + 0)
                      00473 ;       .line   39; "setting_mode.c"    if(Readings.temp_read <= (Readings.Set_value-5))
00BD   ???? ????      00474         BANKSEL _Readings
00BF   08??           00475         MOVF    (_Readings + 0),W
00C0   ???? ????      00476         BANKSEL r0x101C
00C2   00??           00477         MOVWF   r0x101C
00C3   ???? ????      00478         BANKSEL _Readings
00C5   08??           00479         MOVF    (_Readings + 1),W
00C6   ???? ????      00480         BANKSEL r0x101D
00C8   00??           00481         MOVWF   r0x101D
00C9   ???? ????      00482         BANKSEL _Readings
00CB   08??           00483         MOVF    (_Readings + 2),W
00CC   ???? ????      00484         BANKSEL r0x101E
00CE   00??           00485         MOVWF   r0x101E
00CF   ???? ????      00486         BANKSEL _Readings
00D1   08??           00487         MOVF    (_Readings + 3),W
00D2   ???? ????      00488         BANKSEL r0x101F
00D4   00??           00489         MOVWF   r0x101F
00D5   ???? ????      00490         BANKSEL _Readings
00D7   08??           00491         MOVF    (_Readings + 4),W
00D8   ???? ????      00492         BANKSEL r0x1020
00DA   00??           00493         MOVWF   r0x1020
00DB   ???? ????      00494         BANKSEL _Readings
00DD   08??           00495         MOVF    (_Readings + 5),W
00DE   ???? ????      00496         BANKSEL r0x1021
00E0   00??           00497         MOVWF   r0x1021
00E1   ???? ????      00498         BANKSEL _Readings
00E3   08??           00499         MOVF    (_Readings + 6),W
00E4   ???? ????      00500         BANKSEL r0x1022
00E6   00??           00501         MOVWF   r0x1022
00E7   ???? ????      00502         BANKSEL _Readings
00E9   08??           00503         MOVF    (_Readings + 7),W
00EA   ???? ????      00504         BANKSEL r0x1023
00EC   00??           00505         MOVWF   r0x1023
00ED   30FB           00506         MOVLW   0xfb
00EE   07??           00507         ADDWF   r0x1020,W
00EF   00??           00508         MOVWF   r0x1024
00F0   30FF           00509         MOVLW   0xff
00F1   00??           00510         MOVWF   r0x1025
00F2   08??           00511         MOVF    r0x1021,W
00F3   1803           00512         BTFSC   STATUS,0
00F4   0F??           00513         INCFSZ  r0x1021,W
00F5   07??           00514         ADDWF   r0x1025,F
00F6   30FF           00515         MOVLW   0xff
00F7   00??           00516         MOVWF   r0x1026
00F8   08??           00517         MOVF    r0x1022,W
00F9   1803           00518         BTFSC   STATUS,0
00FA   0F??           00519         INCFSZ  r0x1022,W
00FB   07??           00520         ADDWF   r0x1026,F
gpasm-1.4.0 #1106 (Oct  6 2014) obj\Release\s   7-19-2020  20:05:24         PAGE 11


LOC    OBJECT CODE    LINE  SOURCE TEXT
  VALUE

00FC   30FF           00521         MOVLW   0xff
00FD   00??           00522         MOVWF   r0x1027
00FE   08??           00523         MOVF    r0x1023,W
00FF   1803           00524         BTFSC   STATUS,0
0100   0F??           00525         INCFSZ  r0x1023,W
0101   07??           00526         ADDWF   r0x1027,F
0102   08??           00527         MOVF    r0x101F,W
0103   02??           00528         SUBWF   r0x1027,W
0104   1D03           00529         BTFSS   STATUS,2
0105   2???           00530         GOTO    _00142_DS_
0106   08??           00531         MOVF    r0x101E,W
0107   02??           00532         SUBWF   r0x1026,W
0108   1D03           00533         BTFSS   STATUS,2
0109   2???           00534         GOTO    _00142_DS_
010A   08??           00535         MOVF    r0x101D,W
010B   02??           00536         SUBWF   r0x1025,W
010C   1D03           00537         BTFSS   STATUS,2
010D   2???           00538         GOTO    _00142_DS_
010E   08??           00539         MOVF    r0x101C,W
010F   02??           00540         SUBWF   r0x1024,W
0110                  00541 _00142_DS_
0110   1C03           00542         BTFSS   STATUS,0
0111   2???           00543         GOTO    _00132_DS_
                      00544 ;;genSkipc:3247: created from rifx:027A5DF4
                      00545 ;;/home/sdcc-builder/build/sdcc-build/orig/sdcc/src/pic14/gen.c:6461: size=0, offset=0, AOP_TYPE(res)=8
                      00546 ;       .line   41; "setting_mode.c"    Flags.Toggle_led = 1 ;        //the led will toggle
0112   3001           00547         MOVLW   0x01
                      00548 ;       .line   42; "setting_mode.c"    Flags.Heater_Operation = ON ; //Turn on The Heater element
0113   ???? ????      00549         BANKSEL _Flags
0115   00??           00550         MOVWF   (_Flags + 1)
0116   00??           00551         MOVWF   (_Flags + 2)
                      00552 ;;/home/sdcc-builder/build/sdcc-build/orig/sdcc/src/pic14/gen.c:6461: size=0, offset=0, AOP_TYPE(res)=8
                      00553 ;       .line   43; "setting_mode.c"    Flags.Cooler_Operation = OFF ;//Turn off Cooler element
0117   01??           00554         CLRF    (_Flags + 3)
0118   2???           00555         GOTO    _00134_DS_
0119                  00556 _00132_DS_
                      00557 ;       .line   45; "setting_mode.c"    else if(Readings.temp_read >= (Readings.Set_value+5))
0119   ???? ????      00558         BANKSEL _Readings
011B   08??           00559         MOVF    (_Readings + 0),W
011C   ???? ????      00560         BANKSEL r0x101C
011E   00??           00561         MOVWF   r0x101C
011F   ???? ????      00562         BANKSEL _Readings
0121   08??           00563         MOVF    (_Readings + 1),W
0122   ???? ????      00564         BANKSEL r0x101D
0124   00??           00565         MOVWF   r0x101D
0125   ???? ????      00566         BANKSEL _Readings
0127   08??           00567         MOVF    (_Readings + 2),W
0128   ???? ????      00568         BANKSEL r0x101E
012A   00??           00569         MOVWF   r0x101E
012B   ???? ????      00570         BANKSEL _Readings
012D   08??           00571         MOVF    (_Readings + 3),W
012E   ???? ????      00572         BANKSEL r0x101F
0130   00??           00573         MOVWF   r0x101F
gpasm-1.4.0 #1106 (Oct  6 2014) obj\Release\s   7-19-2020  20:05:24         PAGE 12


LOC    OBJECT CODE    LINE  SOURCE TEXT
  VALUE

0131   3005           00574         MOVLW   0x05
0132   07??           00575         ADDWF   r0x1020,F
0133   1803           00576         BTFSC   STATUS,0
0134   0A??           00577         INCF    r0x1021,F
0135   1903           00578         BTFSC   STATUS,2
0136   0A??           00579         INCF    r0x1022,F
0137   1903           00580         BTFSC   STATUS,2
0138   0A??           00581         INCF    r0x1023,F
0139   08??           00582         MOVF    r0x1023,W
013A   02??           00583         SUBWF   r0x101F,W
013B   1D03           00584         BTFSS   STATUS,2
013C   2???           00585         GOTO    _00143_DS_
013D   08??           00586         MOVF    r0x1022,W
013E   02??           00587         SUBWF   r0x101E,W
013F   1D03           00588         BTFSS   STATUS,2
0140   2???           00589         GOTO    _00143_DS_
0141   08??           00590         MOVF    r0x1021,W
0142   02??           00591         SUBWF   r0x101D,W
0143   1D03           00592         BTFSS   STATUS,2
0144   2???           00593         GOTO    _00143_DS_
0145   08??           00594         MOVF    r0x1020,W
0146   02??           00595         SUBWF   r0x101C,W
0147                  00596 _00143_DS_
0147   1C03           00597         BTFSS   STATUS,0
0148   2???           00598         GOTO    _00134_DS_
                      00599 ;;genSkipc:3247: created from rifx:027A5DF4
                      00600 ;;/home/sdcc-builder/build/sdcc-build/orig/sdcc/src/pic14/gen.c:6461: size=0, offset=0, AOP_TYPE(res)=8
                      00601 ;       .line   47; "setting_mode.c"    Flags.Toggle_led   = 0 ;      //the led will turn on without tog
                            gling
0149   ???? ????      00602         BANKSEL _Flags
014B   01??           00603         CLRF    (_Flags + 1)
                      00604 ;;/home/sdcc-builder/build/sdcc-build/orig/sdcc/src/pic14/gen.c:6461: size=0, offset=0, AOP_TYPE(res)=8
                      00605 ;       .line   48; "setting_mode.c"    Flags.Heater_Operation = OFF ; //Turn on The Heater element
014C   01??           00606         CLRF    (_Flags + 2)
                      00607 ;;/home/sdcc-builder/build/sdcc-build/orig/sdcc/src/pic14/gen.c:6461: size=0, offset=0, AOP_TYPE(res)=8
                      00608 ;       .line   49; "setting_mode.c"    Flags.Cooler_Operation = ON ;//Turn off Heater element
014D   3001           00609         MOVLW   0x01
014E   00??           00610         MOVWF   (_Flags + 3)
014F                  00611 _00134_DS_
014F   0008           00612         RETURN  
                      00613 ; exit point of _SettingMode_Fixed_mode
                      00614 
                      00615 ;***
                      00616 ;  pBlock Stats: dbName = C
                      00617 ;***
                      00618 ;entry:  _SettingMode_update    ;Function start
                      00619 ; 2 exit points
                      00620 ;has an exit
                      00621 ;functions called:
                      00622 ;   _SettingMode_OFF_mode
                      00623 ;   _SettingMode_Fixed_mode
                      00624 ;   _SettingMode_Blinking_mode
                      00625 ;   _SettingMode_OFF_mode
gpasm-1.4.0 #1106 (Oct  6 2014) obj\Release\s   7-19-2020  20:05:24         PAGE 13


LOC    OBJECT CODE    LINE  SOURCE TEXT
  VALUE

                      00626 ;   _SettingMode_Fixed_mode
                      00627 ;   _SettingMode_Blinking_mode
                      00628 ;2 compiler assigned registers:
                      00629 ;   r0x1028
                      00630 ;   r0x1029
                      00631 ;; Starting pCode block
0150                  00632 _SettingMode_update     ;Function start
                      00633 ; 2 exit points
                      00634 ;       .line   11; "setting_mode.c"    switch(Flags.Operation_Flag)
0150   ???? ????      00635         BANKSEL _Flags
0152   08??           00636         MOVF    (_Flags + 4),W
0153   ???? ????      00637         BANKSEL r0x1028
0155   00??           00638         MOVWF   r0x1028
0156   1903           00639         BTFSC   STATUS,2
0157   2???           00640         GOTO    _00105_DS_
0158   08??           00641         MOVF    r0x1028,W
0159   3A01           00642         XORLW   0x01
015A   1903           00643         BTFSC   STATUS,2
015B   2???           00644         GOTO    _00106_DS_
015C   2???           00645         GOTO    _00112_DS_
015D                  00646 _00105_DS_
                      00647 ;       .line   14; "setting_mode.c"    SettingMode_OFF_mode();
015D   2???           00648         CALL    _SettingMode_OFF_mode
                      00649 ;       .line   15; "setting_mode.c"    break;
015E   2???           00650         GOTO    _00112_DS_
015F                  00651 _00106_DS_
                      00652 ;       .line   17; "setting_mode.c"    if(Counters.FixedMode_counter == 250)//if 5s are run out without
                             pressing up or down buttons the system goes into fixed mode
015F   ???? ????      00653         BANKSEL _Counters
0161   08??           00654         MOVF    (_Counters + 0),W
0162   ???? ????      00655         BANKSEL r0x1028
0164   00??           00656         MOVWF   r0x1028
0165   ???? ????      00657         BANKSEL _Counters
0167   08??           00658         MOVF    (_Counters + 1),W
0168   ???? ????      00659         BANKSEL r0x1029
016A   00??           00660         MOVWF   r0x1029
016B   08??           00661         MOVF    r0x1028,W
016C   3AFA           00662         XORLW   0xfa
016D   1D03           00663         BTFSS   STATUS,2
016E   2???           00664         GOTO    _00108_DS_
016F   08??           00665         MOVF    r0x1029,W
0170   3A00           00666         XORLW   0x00
0171   1D03           00667         BTFSS   STATUS,2
0172   2???           00668         GOTO    _00108_DS_
                      00669 ;       .line   19; "setting_mode.c"    SettingMode_Fixed_mode();
0173   2???           00670         CALL    _SettingMode_Fixed_mode
0174   2???           00671         GOTO    _00112_DS_
0175                  00672 _00108_DS_
                      00673 ;       .line   24; "setting_mode.c"    SettingMode_Blinking_mode();
0175   2???           00674         CALL    _SettingMode_Blinking_mode
0176                  00675 _00112_DS_
                      00676 ;       .line   31; "setting_mode.c"    }
0176   0008           00677         RETURN  
gpasm-1.4.0 #1106 (Oct  6 2014) obj\Release\s   7-19-2020  20:05:24         PAGE 14


LOC    OBJECT CODE    LINE  SOURCE TEXT
  VALUE

                      00678 ; exit point of _SettingMode_update
                      00679 
                      00680 
                      00681 ;       code size estimation:
                      00682 ;         219+   78 =   297 instructions (  750 byte)
                      00683 
                      00684         end
gpasm-1.4.0 #1106 (Oct  6 2014) obj\Release\s   7-19-2020  20:05:24         PAGE 15


SYMBOL TABLE
  LABEL                             VALUE

ACKDT                             00000005
ACKEN                             00000004
ACKSTAT                           00000006
ADCON0                            0000001F
ADCON1                            0000009F
ADCS0                             00000006
ADCS1                             00000007
ADCS2                             00000006
ADDEN                             00000003
ADFM                              00000007
ADIE                              00000006
ADIF                              00000006
ADON                              00000000
ADRESH                            0000001E
ADRESL                            0000009E
BCLIE                             00000003
BCLIF                             00000003
BF                                00000000
BRGH                              00000002
C                                 00000000
C1INV                             00000004
C1OUT                             00000006
C2INV                             00000005
C2OUT                             00000007
CCP1CON                           00000017
CCP1IE                            00000002
CCP1IF                            00000002
CCP1M0                            00000000
CCP1M1                            00000001
CCP1M2                            00000002
CCP1M3                            00000003
CCP1X                             00000005
CCP1Y                             00000004
CCP2CON                           0000001D
CCP2IE                            00000000
CCP2IF                            00000000
CCP2M0                            00000000
CCP2M1                            00000001
CCP2M2                            00000002
CCP2M3                            00000003
CCP2X                             00000005
CCP2Y                             00000004
CCPR1                             00000015
CCPR1H                            00000016
CCPR1L                            00000015
CCPR2                             0000001B
CCPR2H                            0000001C
CCPR2L                            0000001B
CHS0                              00000003
CHS1                              00000004
CHS2                              00000005
CIS                               00000003
CKE                               00000006
gpasm-1.4.0 #1106 (Oct  6 2014) obj\Release\s   7-19-2020  20:05:24         PAGE 16


SYMBOL TABLE
  LABEL                             VALUE 

CKP                               00000004
CM0                               00000000
CM1                               00000001
CM2                               00000002
CMCON                             0000009C
CMIE                              00000006
CMIF                              00000006
CREN                              00000004
CSRC                              00000007
CVR0                              00000000
CVR1                              00000001
CVR2                              00000002
CVR3                              00000003
CVRCON                            0000009D
CVREN                             00000007
CVROE                             00000006
CVRR                              00000005
D                                 00000005
DATA_ADDRESS                      00000005
DC                                00000001
D_A                               00000005
D_NOT_A                           00000005
EEADR                             0000010D
EEADRH                            0000010F
EECON1                            0000018C
EECON2                            0000018D
EEDATA                            0000010C
EEDATH                            0000010E
EEIE                              00000004
EEIF                              00000004
EEPGD                             00000007
F                                 00000001
FERR                              00000002
FSR                               00000004
GCEN                              00000007
GIE                               00000007
GO                                00000002
GO_DONE                           00000002
GO_NOT_DONE                       00000002
I2C_DATA                          00000005
I2C_READ                          00000002
I2C_START                         00000003
I2C_STOP                          00000004
IBF                               00000007
IBOV                              00000005
INDF                              00000000
INTCON                            0000000B
INTE                              00000004
INTEDG                            00000006
INTF                              00000001
IRP                               00000007
NOT_A                             00000005
NOT_ADDRESS                       00000005
gpasm-1.4.0 #1106 (Oct  6 2014) obj\Release\s   7-19-2020  20:05:24         PAGE 17


SYMBOL TABLE
  LABEL                             VALUE 

NOT_BO                            00000000
NOT_BOR                           00000000
NOT_DONE                          00000002
NOT_PD                            00000003
NOT_POR                           00000001
NOT_RBPU                          00000007
NOT_RC8                           00000006
NOT_T1SYNC                        00000002
NOT_TO                            00000004
NOT_TX8                           00000006
NOT_W                             00000002
NOT_WRITE                         00000002
OBF                               00000006
OERR                              00000001
OPTION_REG                        00000081
P                                 00000004
PCFG0                             00000000
PCFG1                             00000001
PCFG2                             00000002
PCFG3                             00000003
PCL                               00000002
PCLATH                            0000000A
PCON                              0000008E
PEIE                              00000006
PEN                               00000002
PIE1                              0000008C
PIE2                              0000008D
PIR1                              0000000C
PIR2                              0000000D
PORTA                             00000005
PORTB                             00000006
PORTC                             00000007
PORTD                             00000008
PORTE                             00000009
PR2                               00000092
PS0                               00000000
PS1                               00000001
PS2                               00000002
PSA                               00000003
PSAVE                             00000000
PSPIE                             00000007
PSPIF                             00000007
PSPMODE                           00000004
R                                 00000002
RA0                               00000000
RA1                               00000001
RA2                               00000002
RA3                               00000003
RA4                               00000004
RA5                               00000005
RB0                               00000000
RB1                               00000001
RB2                               00000002
gpasm-1.4.0 #1106 (Oct  6 2014) obj\Release\s   7-19-2020  20:05:24         PAGE 18


SYMBOL TABLE
  LABEL                             VALUE 

RB3                               00000003
RB4                               00000004
RB5                               00000005
RB6                               00000006
RB7                               00000007
RBIE                              00000003
RBIF                              00000000
RC0                               00000000
RC1                               00000001
RC2                               00000002
RC3                               00000003
RC4                               00000004
RC5                               00000005
RC6                               00000006
RC7                               00000007
RC8_9                             00000006
RC9                               00000006
RCD8                              00000000
RCEN                              00000003
RCIE                              00000005
RCIF                              00000005
RCREG                             0000001A
RCSTA                             00000018
RD                                00000000
RD0                               00000000
RD1                               00000001
RD2                               00000002
RD3                               00000003
RD4                               00000004
RD5                               00000005
RD6                               00000006
RD7                               00000007
RE0                               00000000
RE1                               00000001
RE2                               00000002
READ_WRITE                        00000002
RP0                               00000005
RP1                               00000006
RSEN                              00000001
RX9                               00000006
RX9D                              00000000
R_NOT_W                           00000002
R_W                               00000002
S                                 00000003
SEN                               00000000
SMP                               00000007
SPBRG                             00000099
SPEN                              00000007
SREN                              00000005
SSAVE                             00000000
SSPADD                            00000093
SSPBUF                            00000013
SSPCON                            00000014
gpasm-1.4.0 #1106 (Oct  6 2014) obj\Release\s   7-19-2020  20:05:24         PAGE 19


SYMBOL TABLE
  LABEL                             VALUE 

SSPCON2                           00000091
SSPEN                             00000005
SSPIE                             00000003
SSPIF                             00000003
SSPM0                             00000000
SSPM1                             00000001
SSPM2                             00000002
SSPM3                             00000003
SSPOV                             00000006
SSPSTAT                           00000094
STATUS                            00000003
STK00                             00000000
STK01                             00000000
STK02                             00000000
STK03                             00000000
STK04                             00000000
STK05                             00000000
STK06                             00000000
STK07                             00000000
STK08                             00000000
STK09                             00000000
STK10                             00000000
STK11                             00000000
STK12                             00000000
SYNC                              00000004
T0CS                              00000005
T0IE                              00000005
T0IF                              00000002
T0SE                              00000004
T1CKPS0                           00000004
T1CKPS1                           00000005
T1CON                             00000010
T1INSYNC                          00000002
T1OSCEN                           00000003
T1SYNC                            00000002
T2CKPS0                           00000000
T2CKPS1                           00000001
T2CON                             00000012
TMR0                              00000001
TMR0IE                            00000005
TMR0IF                            00000002
TMR1                              0000000E
TMR1CS                            00000001
TMR1H                             0000000F
TMR1IE                            00000000
TMR1IF                            00000000
TMR1L                             0000000E
TMR1ON                            00000000
TMR2                              00000011
TMR2IE                            00000001
TMR2IF                            00000001
TMR2ON                            00000002
TOUTPS0                           00000003
gpasm-1.4.0 #1106 (Oct  6 2014) obj\Release\s   7-19-2020  20:05:24         PAGE 20


SYMBOL TABLE
  LABEL                             VALUE 

TOUTPS1                           00000004
TOUTPS2                           00000005
TOUTPS3                           00000006
TRISA                             00000085
TRISA0                            00000000
TRISA1                            00000001
TRISA2                            00000002
TRISA3                            00000003
TRISA4                            00000004
TRISA5                            00000005
TRISB                             00000086
TRISB0                            00000000
TRISB1                            00000001
TRISB2                            00000002
TRISB3                            00000003
TRISB4                            00000004
TRISB5                            00000005
TRISB6                            00000006
TRISB7                            00000007
TRISC                             00000087
TRISC0                            00000000
TRISC1                            00000001
TRISC2                            00000002
TRISC3                            00000003
TRISC4                            00000004
TRISC5                            00000005
TRISC6                            00000006
TRISC7                            00000007
TRISD                             00000088
TRISD0                            00000000
TRISD1                            00000001
TRISD2                            00000002
TRISD3                            00000003
TRISD4                            00000004
TRISD5                            00000005
TRISD6                            00000006
TRISD7                            00000007
TRISE                             00000089
TRISE0                            00000000
TRISE1                            00000001
TRISE2                            00000002
TRMT                              00000001
TX8_9                             00000006
TX9                               00000006
TX9D                              00000000
TXD8                              00000000
TXEN                              00000005
TXIE                              00000004
TXIF                              00000004
TXREG                             00000019
TXSTA                             00000098
UA                                00000001
W                                 00000000
gpasm-1.4.0 #1106 (Oct  6 2014) obj\Release\s   7-19-2020  20:05:24         PAGE 21


SYMBOL TABLE
  LABEL                             VALUE 

WCOL                              00000007
WR                                00000001
WREN                              00000002
WRERR                             00000003
WSAVE                             00000000
Z                                 00000002
_00105_DS_                        0000015D
_00106_DS_                        0000015F
_00108_DS_                        00000175
_00112_DS_                        00000176
_00132_DS_                        00000119
_00134_DS_                        0000014F
_00142_DS_                        00000110
_00143_DS_                        00000147
_00149_DS_                        00000055
_ADCON0                           00000000
_ADCON0bits                       00000000
_ADCON1                           00000000
_ADCON1bits                       00000000
_ADC_GetResult                    00000000
_ADC_Init                         00000000
_ADC_Update                       00000000
_ADRESH                           00000000
_ADRESL                           00000000
_BODEN_OFF                        00003FBF
_BODEN_ON                         00003FFF
_BOREN_OFF                        00003FBF
_BOREN_ON                         00003FFF
_CCP1CON                          00000000
_CCP1CONbits                      00000000
_CCP2CON                          00000000
_CCP2CONbits                      00000000
_CCPR1                            00000000
_CCPR1H                           00000000
_CCPR1L                           00000000
_CCPR2                            00000000
_CCPR2H                           00000000
_CCPR2L                           00000000
_CMCON                            00000000
_CMCONbits                        00000000
_CONFIG                           00002007
_CPD_OFF                          00003FFF
_CPD_ON                           00003EFF
_CP_ALL                           00001FFF
_CP_OFF                           00003FFF
_CP_ON                            00001FFF
_CVRCON                           00000000
_CVRCONbits                       00000000
_Cooler_GetState                  00000000
_Cooler_Init                      00000000
_Cooler_SetState                  00000000
_Cooler_update                    00000000
_Counters                         00000000
gpasm-1.4.0 #1106 (Oct  6 2014) obj\Release\s   7-19-2020  20:05:24         PAGE 22


SYMBOL TABLE
  LABEL                             VALUE 

_DEBUG_OFF                        00003FFF
_DEBUG_ON                         000037FF
_DEVID1                           00002006
_EEADR                            00000000
_EEADRH                           00000000
_EECON1                           00000000
_EECON1bits                       00000000
_EECON2                           00000000
_EEDATA                           00000000
_EEDATH                           00000000
_FOSC_EXTRC                       00003FFF
_FOSC_HS                          00003FFE
_FOSC_LP                          00003FFC
_FOSC_XT                          00003FFD
_FSR                              00000000
_Flags                            00000000
_GPIO_GetPortPinState             00000000
_GPIO_InitPort                    00000000
_GPIO_InitPortPin                 00000000
_GPIO_SetPortPinState             00000000
_GPIO_SetPortState                00000000
_GPIO_Update                      00000000
_HS_OSC                           00003FFE
_Heater_GetState                  00000000
_Heater_Init                      00000000
_Heater_update                    00000000
_I2C_Begin                        00000000
_I2C_End                          00000000
_I2C_Hold                         00000000
_I2C_Init                         00000000
_I2C_Read                         00000000
_I2C_Write                        00000000
_IDLOC0                           00002000
_IDLOC1                           00002001
_IDLOC2                           00002002
_IDLOC3                           00002003
_INDF                             00000000
_INTCON                           00000000
_INTCONbits                       00000000
_LED_GetState                     00000000
_LED_Init                         00000000
_LED_Update                       00000000
_LP_OSC                           00003FFC
_LVP_OFF                          00003F7F
_LVP_ON                           00003FFF
_OPTION_REG                       00000000
_OPTION_REGbits                   00000000
_PB_GetState                      00000000
_PB_Init                          00000000
_PB_Update                        00000000
_PCL                              00000000
_PCLATH                           00000000
_PCON                             00000000
gpasm-1.4.0 #1106 (Oct  6 2014) obj\Release\s   7-19-2020  20:05:24         PAGE 23


SYMBOL TABLE
  LABEL                             VALUE 

_PCONbits                         00000000
_PIE1                             00000000
_PIE1bits                         00000000
_PIE2                             00000000
_PIE2bits                         00000000
_PIR1                             00000000
_PIR1bits                         00000000
_PIR2                             00000000
_PIR2bits                         00000000
_PORTA                            00000000
_PORTAbits                        00000000
_PORTB                            00000000
_PORTBbits                        00000000
_PORTC                            00000000
_PORTCbits                        00000000
_PORTD                            00000000
_PORTDbits                        00000000
_PORTE                            00000000
_PORTEbits                        00000000
_PR2                              00000000
_PWRTE_OFF                        00003FFF
_PWRTE_ON                         00003FF7
_RCREG                            00000000
_RCSTA                            00000000
_RCSTAbits                        00000000
_RC_OSC                           00003FFF
_Readings                         00000000
_SPBRG                            00000000
_SSD_GET_Symbol                   00000000
_SSD_GET_state                    00000000
_SSD_Init                         00000000
_SSD_SET_Symbol                   00000000
_SSD_SET_state                    00000000
_SSD_update                       00000000
_SSPADD                           00000000
_SSPBUF                           00000000
_SSPCON                           00000000
_SSPCON2                          00000000
_SSPCON2bits                      00000000
_SSPCONbits                       00000000
_SSPSTAT                          00000000
_SSPSTATbits                      00000000
_STATUS                           00000000
_STATUSbits                       00000000
_SettingMode_Blinking_mode        0000002B
_SettingMode_Fixed_mode           000000B9
_SettingMode_OFF_mode             00000000
_SettingMode_update               00000150
_Start_conversion_Int             00000000
_T1CON                            00000000
_T1CONbits                        00000000
_T2CON                            00000000
_T2CONbits                        00000000
gpasm-1.4.0 #1106 (Oct  6 2014) obj\Release\s   7-19-2020  20:05:24         PAGE 24


SYMBOL TABLE
  LABEL                             VALUE 

_TMR0                             00000000
_TMR0_Init                        00000000
_TMR0_Start                       00000000
_TMR0_Update                      00000000
_TMR1                             00000000
_TMR1H                            00000000
_TMR1L                            00000000
_TMR2                             00000000
_TRISA                            00000000
_TRISAbits                        00000000
_TRISB                            00000000
_TRISBbits                        00000000
_TRISC                            00000000
_TRISCbits                        00000000
_TRISD                            00000000
_TRISDbits                        00000000
_TRISE                            00000000
_TRISEbits                        00000000
_TXREG                            00000000
_TXSTA                            00000000
_TXSTAbits                        00000000
_Temprature_Init                  00000000
_Temprature_update                00000000
_UTIL_DelayMS                     00000000
_WDTE_OFF                         00003FFB
_WDTE_ON                          00003FFF
_WDT_OFF                          00003FFB
_WDT_ON                           00003FFF
_WRT_1FOURTH                      00003BFF
_WRT_256                          00003DFF
_WRT_HALF                         000039FF
_WRT_OFF                          00003FFF
_XT_OSC                           00003FFD
__16F877A                         00000001
__CODE_END                        00001FFF
__CODE_START                      00000000
__COMMON_RAM_END                  0000007F
__COMMON_RAM_START                00000070
__EEPROM_END                      000021FF
__EEPROM_START                    00002100
__VECTOR_INT                      00000004
__VECTOR_RESET                    00000000
_code_setting_mode_0006           00000006
_code_setting_mode_000E           0000000E
_e2pex_update                     00000000
_e2pext_r                         00000000
_e2pext_w                         00000000
r0x1018                           0000000E
r0x1019                           0000000F
r0x101A                           00000010
r0x101B                           00000011
r0x101C                           00000002
r0x101D                           00000003
gpasm-1.4.0 #1106 (Oct  6 2014) obj\Release\s   7-19-2020  20:05:24         PAGE 25


SYMBOL TABLE
  LABEL                             VALUE 

r0x101E                           00000004
r0x101F                           00000005
r0x1020                           00000006
r0x1021                           00000007
r0x1022                           00000008
r0x1023                           00000009
r0x1024                           0000000A
r0x1025                           0000000B
r0x1026                           0000000C
r0x1027                           0000000D
r0x1028                           00000000
r0x1029                           00000001

Errors   :     0
Warnings :     0 reported,     0 suppressed
Messages :     0 reported,     0 suppressed

