gpasm-1.4.0 #1106 (Oct  6 2014) obj\Release\S   7-19-2020  20:05:24         PAGE  1


LOC    OBJECT CODE    LINE  SOURCE TEXT
  VALUE

                      00001 ;--------------------------------------------------------
                      00002 ; File Created by SDCC : free open source ANSI-C Compiler
                      00003 ; Version 3.5.0 #9253 (Jun 20 2015) (MINGW32)
                      00004 ; This file was generated Sun Jul 19 20:05:24 2020
                      00005 ;--------------------------------------------------------
                      00006 ; PIC port for the 14-bit core
                      00007 ;--------------------------------------------------------
                      00008 ;       .file   "SSD.c"
                      00009         list    p=16f877a
                      00010         radix dec
                      00011         include "p16f877a.inc"
                      00001         LIST
                      00002 
                      00003 ;==========================================================================
                      00004 ; Build date : Aug 07 2014
                      00005 ;  MPASM PIC16F877A processor include
                      00006 ; 
                      00007 ;  (c) Copyright 1999-2014 Microchip Technology, All rights reserved
                      00008 ;==========================================================================
                      00009 
                      00567         LIST
                      00012 ;--------------------------------------------------------
                      00013 ; external declarations
                      00014 ;--------------------------------------------------------
  0000                00015         extern  _GPIO_InitPortPin
  0000                00016         extern  _GPIO_InitPort
  0000                00017         extern  _GPIO_Update
  0000                00018         extern  _GPIO_SetPortPinState
  0000                00019         extern  _GPIO_SetPortState
  0000                00020         extern  _GPIO_GetPortPinState
  0000                00021         extern  _SettingMode_update
  0000                00022         extern  _PB_Init
  0000                00023         extern  _PB_Update
  0000                00024         extern  _PB_GetState
  0000                00025         extern  _ADC_Init
  0000                00026         extern  _ADC_Update
  0000                00027         extern  _ADC_GetResult
  0000                00028         extern  _Start_conversion_Int
  0000                00029         extern  _Temprature_Init
  0000                00030         extern  _Temprature_update
  0000                00031         extern  _LED_Init
  0000                00032         extern  _LED_GetState
  0000                00033         extern  _LED_Update
  0000                00034         extern  _Heater_Init
  0000                00035         extern  _Heater_update
  0000                00036         extern  _Heater_GetState
  0000                00037         extern  _Cooler_Init
  0000                00038         extern  _Cooler_SetState
  0000                00039         extern  _Cooler_GetState
  0000                00040         extern  _Cooler_update
  0000                00041         extern  _I2C_Init
  0000                00042         extern  _I2C_Hold
  0000                00043         extern  _I2C_Begin
gpasm-1.4.0 #1106 (Oct  6 2014) obj\Release\S   7-19-2020  20:05:24         PAGE  2


LOC    OBJECT CODE    LINE  SOURCE TEXT
  VALUE

  0000                00044         extern  _I2C_End
  0000                00045         extern  _I2C_Write
  0000                00046         extern  _I2C_Read
  0000                00047         extern  _e2pext_r
  0000                00048         extern  _e2pext_w
  0000                00049         extern  _e2pex_update
  0000                00050         extern  _TMR0_Init
  0000                00051         extern  _TMR0_Update
  0000                00052         extern  _TMR0_Start
  0000                00053         extern  _UTIL_DelayMS
  0000                00054         extern  __modulong
  0000                00055         extern  __divulong
  0000                00056         extern  _STATUSbits
  0000                00057         extern  _PORTAbits
  0000                00058         extern  _PORTBbits
  0000                00059         extern  _PORTCbits
  0000                00060         extern  _PORTDbits
  0000                00061         extern  _PORTEbits
  0000                00062         extern  _INTCONbits
  0000                00063         extern  _PIR1bits
  0000                00064         extern  _PIR2bits
  0000                00065         extern  _T1CONbits
  0000                00066         extern  _T2CONbits
  0000                00067         extern  _SSPCONbits
  0000                00068         extern  _CCP1CONbits
  0000                00069         extern  _RCSTAbits
  0000                00070         extern  _CCP2CONbits
  0000                00071         extern  _ADCON0bits
  0000                00072         extern  _OPTION_REGbits
  0000                00073         extern  _TRISAbits
  0000                00074         extern  _TRISBbits
  0000                00075         extern  _TRISCbits
  0000                00076         extern  _TRISDbits
  0000                00077         extern  _TRISEbits
  0000                00078         extern  _PIE1bits
  0000                00079         extern  _PIE2bits
  0000                00080         extern  _PCONbits
  0000                00081         extern  _SSPCON2bits
  0000                00082         extern  _SSPSTATbits
  0000                00083         extern  _TXSTAbits
  0000                00084         extern  _CMCONbits
  0000                00085         extern  _CVRCONbits
  0000                00086         extern  _ADCON1bits
  0000                00087         extern  _EECON1bits
  0000                00088         extern  _Counters
  0000                00089         extern  _Flags
  0000                00090         extern  _Readings
  0000                00091         extern  _INDF
  0000                00092         extern  _TMR0
  0000                00093         extern  _PCL
  0000                00094         extern  _STATUS
  0000                00095         extern  _FSR
  0000                00096         extern  _PORTA
gpasm-1.4.0 #1106 (Oct  6 2014) obj\Release\S   7-19-2020  20:05:24         PAGE  3


LOC    OBJECT CODE    LINE  SOURCE TEXT
  VALUE

  0000                00097         extern  _PORTB
  0000                00098         extern  _PORTC
  0000                00099         extern  _PORTD
  0000                00100         extern  _PORTE
  0000                00101         extern  _PCLATH
  0000                00102         extern  _INTCON
  0000                00103         extern  _PIR1
  0000                00104         extern  _PIR2
  0000                00105         extern  _TMR1
  0000                00106         extern  _TMR1L
  0000                00107         extern  _TMR1H
  0000                00108         extern  _T1CON
  0000                00109         extern  _TMR2
  0000                00110         extern  _T2CON
  0000                00111         extern  _SSPBUF
  0000                00112         extern  _SSPCON
  0000                00113         extern  _CCPR1
  0000                00114         extern  _CCPR1L
  0000                00115         extern  _CCPR1H
  0000                00116         extern  _CCP1CON
  0000                00117         extern  _RCSTA
  0000                00118         extern  _TXREG
  0000                00119         extern  _RCREG
  0000                00120         extern  _CCPR2
  0000                00121         extern  _CCPR2L
  0000                00122         extern  _CCPR2H
  0000                00123         extern  _CCP2CON
  0000                00124         extern  _ADRESH
  0000                00125         extern  _ADCON0
  0000                00126         extern  _OPTION_REG
  0000                00127         extern  _TRISA
  0000                00128         extern  _TRISB
  0000                00129         extern  _TRISC
  0000                00130         extern  _TRISD
  0000                00131         extern  _TRISE
  0000                00132         extern  _PIE1
  0000                00133         extern  _PIE2
  0000                00134         extern  _PCON
  0000                00135         extern  _SSPCON2
  0000                00136         extern  _PR2
  0000                00137         extern  _SSPADD
  0000                00138         extern  _SSPSTAT
  0000                00139         extern  _TXSTA
  0000                00140         extern  _SPBRG
  0000                00141         extern  _CMCON
  0000                00142         extern  _CVRCON
  0000                00143         extern  _ADRESL
  0000                00144         extern  _ADCON1
  0000                00145         extern  _EEDATA
  0000                00146         extern  _EEADR
  0000                00147         extern  _EEDATH
  0000                00148         extern  _EEADRH
  0000                00149         extern  _EECON1
gpasm-1.4.0 #1106 (Oct  6 2014) obj\Release\S   7-19-2020  20:05:24         PAGE  4


LOC    OBJECT CODE    LINE  SOURCE TEXT
  VALUE

  0000                00150         extern  _EECON2
  0000                00151         extern  __gptrget1
                      00152 
  0000                00153         extern PSAVE
  0000                00154         extern SSAVE
  0000                00155         extern WSAVE
  0000                00156         extern STK12
  0000                00157         extern STK11
  0000                00158         extern STK10
  0000                00159         extern STK09
  0000                00160         extern STK08
  0000                00161         extern STK07
  0000                00162         extern STK06
  0000                00163         extern STK05
  0000                00164         extern STK04
  0000                00165         extern STK03
  0000                00166         extern STK02
  0000                00167         extern STK01
  0000                00168         extern STK00
                      00169 ;--------------------------------------------------------
                      00170 ; global declarations
                      00171 ;--------------------------------------------------------
  0000                00172         global  _SSD_update
  0000                00173         global  _SSD_GET_Symbol
  0000                00174         global  _SSD_GET_state
  0000                00175         global  _SSD_SET_Symbol
  0000                00176         global  _SSD_SET_state
  0000                00177         global  _SSD_Init
  0000                00178         global  _display_flag
  0000                00179         global  _SSD_symbols
                      00180 
                      00181 ;--------------------------------------------------------
                      00182 ; global definitions
                      00183 ;--------------------------------------------------------
                      00184 ;--------------------------------------------------------
                      00185 ; absolute symbol definitions
                      00186 ;--------------------------------------------------------
                      00187 ;--------------------------------------------------------
                      00188 ; compiler-defined variables
                      00189 ;--------------------------------------------------------
                      00190 UDL_SSD_0       udata
0000                  00191 r0x101F res     1
0001                  00192 r0x1020 res     1
0002                  00193 r0x1021 res     1
0003                  00194 r0x1022 res     1
0004                  00195 r0x1012 res     1
0005                  00196 r0x1013 res     1
0006                  00197 r0x1014 res     1
0007                  00198 r0x101D res     1
0008                  00199 r0x101E res     1
0009                  00200 r0x101A res     1
000A                  00201 r0x101B res     1
000B                  00202 r0x1015 res     1
gpasm-1.4.0 #1106 (Oct  6 2014) obj\Release\S   7-19-2020  20:05:24         PAGE  5


LOC    OBJECT CODE    LINE  SOURCE TEXT
  VALUE

000C                  00203 r0x1016 res     1
000D                  00204 r0x1017 res     1
000E                  00205 r0x1018 res     1
000F                  00206 r0x1019 res     1
0010                  00207 _SSD_update_current_ssd_1_69    res     1
                      00208 ;--------------------------------------------------------
                      00209 ; initialized data
                      00210 ;--------------------------------------------------------
                      00211 
                      00212 ID_SSD_0        idata
0000                  00213 _display_flag
0000   01             00214         db      0x01
                      00215 
                      00216 
                      00217 ID_SSD_1        idata
0000                  00218 _SSD_symbols
0000   0A             00219         db      0x0a
0001   00             00220         db      0x00
                      00221 
                      00222 
                      00223 ID_SSD_2        code
0000                  00224 _symbols
0000   343F           00225         retlw 0x3f
0001   3406           00226         retlw 0x06
0002   345B           00227         retlw 0x5b
0003   344F           00228         retlw 0x4f
0004   3466           00229         retlw 0x66
0005   346D           00230         retlw 0x6d
0006   347D           00231         retlw 0x7d
0007   3407           00232         retlw 0x07
0008   347F           00233         retlw 0x7f
0009   346F           00234         retlw 0x6f
000A   3400           00235         retlw 0x00
                      00236 
                      00237 ;--------------------------------------------------------
                      00238 ; overlayable items in internal ram 
                      00239 ;--------------------------------------------------------
                      00240 ;       udata_ovr
                      00241 ;--------------------------------------------------------
                      00242 ; code
                      00243 ;--------------------------------------------------------
                      00244 code_SSD        code
                      00245 ;***
                      00246 ;  pBlock Stats: dbName = C
                      00247 ;***
                      00248 ;entry:  _SSD_update    ;Function start
                      00249 ; 2 exit points
                      00250 ;has an exit
                      00251 ;functions called:
                      00252 ;   __modulong
                      00253 ;   __modulong
                      00254 ;   __divulong
                      00255 ;   _SSD_SET_Symbol
gpasm-1.4.0 #1106 (Oct  6 2014) obj\Release\S   7-19-2020  20:05:24         PAGE  6


LOC    OBJECT CODE    LINE  SOURCE TEXT
  VALUE

                      00256 ;   __modulong
                      00257 ;   _SSD_SET_Symbol
                      00258 ;   __modulong
                      00259 ;   __modulong
                      00260 ;   __divulong
                      00261 ;   _SSD_SET_Symbol
                      00262 ;   __modulong
                      00263 ;   _SSD_SET_Symbol
                      00264 ;   _SSD_SET_state
                      00265 ;   _SSD_SET_state
                      00266 ;   __gptrget1
                      00267 ;   _GPIO_SetPortState
                      00268 ;   _SSD_SET_state
                      00269 ;   __modulong
                      00270 ;   __modulong
                      00271 ;   __divulong
                      00272 ;   _SSD_SET_Symbol
                      00273 ;   __modulong
                      00274 ;   _SSD_SET_Symbol
                      00275 ;   __modulong
                      00276 ;   __modulong
                      00277 ;   __divulong
                      00278 ;   _SSD_SET_Symbol
                      00279 ;   __modulong
                      00280 ;   _SSD_SET_Symbol
                      00281 ;   _SSD_SET_state
                      00282 ;   _SSD_SET_state
                      00283 ;   __gptrget1
                      00284 ;   _GPIO_SetPortState
                      00285 ;   _SSD_SET_state
                      00286 ;12 compiler assigned registers:
                      00287 ;   r0x1015
                      00288 ;   r0x1016
                      00289 ;   r0x1017
                      00290 ;   r0x1018
                      00291 ;   STK06
                      00292 ;   STK05
                      00293 ;   STK04
                      00294 ;   STK03
                      00295 ;   STK02
                      00296 ;   STK01
                      00297 ;   STK00
                      00298 ;   r0x1019
                      00299 ;; Starting pCode block
0000                  00300 _SSD_update     ;Function start
                      00301 ; 2 exit points
                      00302 ;       .line   106; "SSD.c"    if(display_flag)//display the set value
0000   3000           00303         MOVLW   0x00
0001   ???? ????      00304         BANKSEL _display_flag
0003   04??           00305         IORWF   _display_flag,W
0004   1903           00306         BTFSC   STATUS,2
0005   2???           00307         GOTO    _00168_DS_
                      00308 ;       .line   108; "SSD.c"    SSD_SET_Symbol(SSD_MR,((Readings.Set_value%1000)%100)/10);
gpasm-1.4.0 #1106 (Oct  6 2014) obj\Release\S   7-19-2020  20:05:24         PAGE  7


LOC    OBJECT CODE    LINE  SOURCE TEXT
  VALUE

0006   ???? ????      00309         BANKSEL _Readings
0008   08??           00310         MOVF    (_Readings + 4),W
0009   ???? ????      00311         BANKSEL r0x1015
000B   00??           00312         MOVWF   r0x1015
000C   ???? ????      00313         BANKSEL _Readings
000E   08??           00314         MOVF    (_Readings + 5),W
000F   ???? ????      00315         BANKSEL r0x1016
0011   00??           00316         MOVWF   r0x1016
0012   ???? ????      00317         BANKSEL _Readings
0014   08??           00318         MOVF    (_Readings + 6),W
0015   ???? ????      00319         BANKSEL r0x1017
0017   00??           00320         MOVWF   r0x1017
0018   ???? ????      00321         BANKSEL _Readings
001A   08??           00322         MOVF    (_Readings + 7),W
001B   ???? ????      00323         BANKSEL r0x1018
001D   00??           00324         MOVWF   r0x1018
001E   30E8           00325         MOVLW   0xe8
001F   00??           00326         MOVWF   STK06
0020   3003           00327         MOVLW   0x03
0021   00??           00328         MOVWF   STK05
0022   3000           00329         MOVLW   0x00
0023   00??           00330         MOVWF   STK04
0024   3000           00331         MOVLW   0x00
0025   00??           00332         MOVWF   STK03
0026   08??           00333         MOVF    r0x1015,W
0027   00??           00334         MOVWF   STK02
0028   08??           00335         MOVF    r0x1016,W
0029   00??           00336         MOVWF   STK01
002A   08??           00337         MOVF    r0x1017,W
002B   00??           00338         MOVWF   STK00
002C   08??           00339         MOVF    r0x1018,W
002D   ???? ????      00340         PAGESEL __modulong
002F   2???           00341         CALL    __modulong
0030   ???? ????      00342         PAGESEL $
0032   ???? ????      00343         BANKSEL r0x1018
0034   00??           00344         MOVWF   r0x1018
0035   08??           00345         MOVF    STK00,W
0036   00??           00346         MOVWF   r0x1017
0037   08??           00347         MOVF    STK01,W
0038   00??           00348         MOVWF   r0x1016
0039   08??           00349         MOVF    STK02,W
003A   00??           00350         MOVWF   r0x1015
003B   3064           00351         MOVLW   0x64
003C   00??           00352         MOVWF   STK06
003D   3000           00353         MOVLW   0x00
003E   00??           00354         MOVWF   STK05
003F   3000           00355         MOVLW   0x00
0040   00??           00356         MOVWF   STK04
0041   3000           00357         MOVLW   0x00
0042   00??           00358         MOVWF   STK03
0043   08??           00359         MOVF    r0x1015,W
0044   00??           00360         MOVWF   STK02
0045   08??           00361         MOVF    r0x1016,W
gpasm-1.4.0 #1106 (Oct  6 2014) obj\Release\S   7-19-2020  20:05:24         PAGE  8


LOC    OBJECT CODE    LINE  SOURCE TEXT
  VALUE

0046   00??           00362         MOVWF   STK01
0047   08??           00363         MOVF    r0x1017,W
0048   00??           00364         MOVWF   STK00
0049   08??           00365         MOVF    r0x1018,W
004A   ???? ????      00366         PAGESEL __modulong
004C   2???           00367         CALL    __modulong
004D   ???? ????      00368         PAGESEL $
004F   ???? ????      00369         BANKSEL r0x1018
0051   00??           00370         MOVWF   r0x1018
0052   08??           00371         MOVF    STK00,W
0053   00??           00372         MOVWF   r0x1017
0054   08??           00373         MOVF    STK01,W
0055   00??           00374         MOVWF   r0x1016
0056   08??           00375         MOVF    STK02,W
0057   00??           00376         MOVWF   r0x1015
0058   300A           00377         MOVLW   0x0a
0059   00??           00378         MOVWF   STK06
005A   3000           00379         MOVLW   0x00
005B   00??           00380         MOVWF   STK05
005C   3000           00381         MOVLW   0x00
005D   00??           00382         MOVWF   STK04
005E   3000           00383         MOVLW   0x00
005F   00??           00384         MOVWF   STK03
0060   08??           00385         MOVF    r0x1015,W
0061   00??           00386         MOVWF   STK02
0062   08??           00387         MOVF    r0x1016,W
0063   00??           00388         MOVWF   STK01
0064   08??           00389         MOVF    r0x1017,W
0065   00??           00390         MOVWF   STK00
0066   08??           00391         MOVF    r0x1018,W
0067   ???? ????      00392         PAGESEL __divulong
0069   2???           00393         CALL    __divulong
006A   ???? ????      00394         PAGESEL $
006C   ???? ????      00395         BANKSEL r0x1018
006E   00??           00396         MOVWF   r0x1018
006F   08??           00397         MOVF    STK00,W
0070   00??           00398         MOVWF   r0x1017
0071   08??           00399         MOVF    STK01,W
0072   00??           00400         MOVWF   r0x1016
0073   08??           00401         MOVF    STK02,W
0074   00??           00402         MOVWF   r0x1015
0075   00??           00403         MOVWF   r0x1019
0076   00??           00404         MOVWF   STK00
0077   3000           00405         MOVLW   0x00
0078   2???           00406         CALL    _SSD_SET_Symbol
                      00407 ;       .line   109; "SSD.c"    SSD_SET_Symbol(SSD_R,Readings.Set_value%10);
0079   ???? ????      00408         BANKSEL _Readings
007B   08??           00409         MOVF    (_Readings + 4),W
007C   ???? ????      00410         BANKSEL r0x1015
007E   00??           00411         MOVWF   r0x1015
007F   ???? ????      00412         BANKSEL _Readings
0081   08??           00413         MOVF    (_Readings + 5),W
0082   ???? ????      00414         BANKSEL r0x1016
gpasm-1.4.0 #1106 (Oct  6 2014) obj\Release\S   7-19-2020  20:05:24         PAGE  9


LOC    OBJECT CODE    LINE  SOURCE TEXT
  VALUE

0084   00??           00415         MOVWF   r0x1016
0085   ???? ????      00416         BANKSEL _Readings
0087   08??           00417         MOVF    (_Readings + 6),W
0088   ???? ????      00418         BANKSEL r0x1017
008A   00??           00419         MOVWF   r0x1017
008B   ???? ????      00420         BANKSEL _Readings
008D   08??           00421         MOVF    (_Readings + 7),W
008E   ???? ????      00422         BANKSEL r0x1018
0090   00??           00423         MOVWF   r0x1018
0091   300A           00424         MOVLW   0x0a
0092   00??           00425         MOVWF   STK06
0093   3000           00426         MOVLW   0x00
0094   00??           00427         MOVWF   STK05
0095   3000           00428         MOVLW   0x00
0096   00??           00429         MOVWF   STK04
0097   3000           00430         MOVLW   0x00
0098   00??           00431         MOVWF   STK03
0099   08??           00432         MOVF    r0x1015,W
009A   00??           00433         MOVWF   STK02
009B   08??           00434         MOVF    r0x1016,W
009C   00??           00435         MOVWF   STK01
009D   08??           00436         MOVF    r0x1017,W
009E   00??           00437         MOVWF   STK00
009F   08??           00438         MOVF    r0x1018,W
00A0   ???? ????      00439         PAGESEL __modulong
00A2   2???           00440         CALL    __modulong
00A3   ???? ????      00441         PAGESEL $
00A5   ???? ????      00442         BANKSEL r0x1018
00A7   00??           00443         MOVWF   r0x1018
00A8   08??           00444         MOVF    STK00,W
00A9   00??           00445         MOVWF   r0x1017
00AA   08??           00446         MOVF    STK01,W
00AB   00??           00447         MOVWF   r0x1016
00AC   08??           00448         MOVF    STK02,W
00AD   00??           00449         MOVWF   r0x1015
00AE   00??           00450         MOVWF   r0x1019
00AF   00??           00451         MOVWF   STK00
00B0   3001           00452         MOVLW   0x01
00B1   2???           00453         CALL    _SSD_SET_Symbol
00B2   2???           00454         GOTO    _00169_DS_
00B3                  00455 _00168_DS_
                      00456 ;       .line   113; "SSD.c"    SSD_SET_Symbol(SSD_MR,((Readings.temp_read%1000)%100)/10);
00B3   ???? ????      00457         BANKSEL _Readings
00B5   08??           00458         MOVF    (_Readings + 0),W
00B6   ???? ????      00459         BANKSEL r0x1015
00B8   00??           00460         MOVWF   r0x1015
00B9   ???? ????      00461         BANKSEL _Readings
00BB   08??           00462         MOVF    (_Readings + 1),W
00BC   ???? ????      00463         BANKSEL r0x1016
00BE   00??           00464         MOVWF   r0x1016
00BF   ???? ????      00465         BANKSEL _Readings
00C1   08??           00466         MOVF    (_Readings + 2),W
00C2   ???? ????      00467         BANKSEL r0x1017
gpasm-1.4.0 #1106 (Oct  6 2014) obj\Release\S   7-19-2020  20:05:24         PAGE 10


LOC    OBJECT CODE    LINE  SOURCE TEXT
  VALUE

00C4   00??           00468         MOVWF   r0x1017
00C5   ???? ????      00469         BANKSEL _Readings
00C7   08??           00470         MOVF    (_Readings + 3),W
00C8   ???? ????      00471         BANKSEL r0x1018
00CA   00??           00472         MOVWF   r0x1018
00CB   30E8           00473         MOVLW   0xe8
00CC   00??           00474         MOVWF   STK06
00CD   3003           00475         MOVLW   0x03
00CE   00??           00476         MOVWF   STK05
00CF   3000           00477         MOVLW   0x00
00D0   00??           00478         MOVWF   STK04
00D1   3000           00479         MOVLW   0x00
00D2   00??           00480         MOVWF   STK03
00D3   08??           00481         MOVF    r0x1015,W
00D4   00??           00482         MOVWF   STK02
00D5   08??           00483         MOVF    r0x1016,W
00D6   00??           00484         MOVWF   STK01
00D7   08??           00485         MOVF    r0x1017,W
00D8   00??           00486         MOVWF   STK00
00D9   08??           00487         MOVF    r0x1018,W
00DA   ???? ????      00488         PAGESEL __modulong
00DC   2???           00489         CALL    __modulong
00DD   ???? ????      00490         PAGESEL $
00DF   ???? ????      00491         BANKSEL r0x1018
00E1   00??           00492         MOVWF   r0x1018
00E2   08??           00493         MOVF    STK00,W
00E3   00??           00494         MOVWF   r0x1017
00E4   08??           00495         MOVF    STK01,W
00E5   00??           00496         MOVWF   r0x1016
00E6   08??           00497         MOVF    STK02,W
00E7   00??           00498         MOVWF   r0x1015
00E8   3064           00499         MOVLW   0x64
00E9   00??           00500         MOVWF   STK06
00EA   3000           00501         MOVLW   0x00
00EB   00??           00502         MOVWF   STK05
00EC   3000           00503         MOVLW   0x00
00ED   00??           00504         MOVWF   STK04
00EE   3000           00505         MOVLW   0x00
00EF   00??           00506         MOVWF   STK03
00F0   08??           00507         MOVF    r0x1015,W
00F1   00??           00508         MOVWF   STK02
00F2   08??           00509         MOVF    r0x1016,W
00F3   00??           00510         MOVWF   STK01
00F4   08??           00511         MOVF    r0x1017,W
00F5   00??           00512         MOVWF   STK00
00F6   08??           00513         MOVF    r0x1018,W
00F7   ???? ????      00514         PAGESEL __modulong
00F9   2???           00515         CALL    __modulong
00FA   ???? ????      00516         PAGESEL $
00FC   ???? ????      00517         BANKSEL r0x1018
00FE   00??           00518         MOVWF   r0x1018
00FF   08??           00519         MOVF    STK00,W
0100   00??           00520         MOVWF   r0x1017
gpasm-1.4.0 #1106 (Oct  6 2014) obj\Release\S   7-19-2020  20:05:24         PAGE 11


LOC    OBJECT CODE    LINE  SOURCE TEXT
  VALUE

0101   08??           00521         MOVF    STK01,W
0102   00??           00522         MOVWF   r0x1016
0103   08??           00523         MOVF    STK02,W
0104   00??           00524         MOVWF   r0x1015
0105   300A           00525         MOVLW   0x0a
0106   00??           00526         MOVWF   STK06
0107   3000           00527         MOVLW   0x00
0108   00??           00528         MOVWF   STK05
0109   3000           00529         MOVLW   0x00
010A   00??           00530         MOVWF   STK04
010B   3000           00531         MOVLW   0x00
010C   00??           00532         MOVWF   STK03
010D   08??           00533         MOVF    r0x1015,W
010E   00??           00534         MOVWF   STK02
010F   08??           00535         MOVF    r0x1016,W
0110   00??           00536         MOVWF   STK01
0111   08??           00537         MOVF    r0x1017,W
0112   00??           00538         MOVWF   STK00
0113   08??           00539         MOVF    r0x1018,W
0114   ???? ????      00540         PAGESEL __divulong
0116   2???           00541         CALL    __divulong
0117   ???? ????      00542         PAGESEL $
0119   ???? ????      00543         BANKSEL r0x1018
011B   00??           00544         MOVWF   r0x1018
011C   08??           00545         MOVF    STK00,W
011D   00??           00546         MOVWF   r0x1017
011E   08??           00547         MOVF    STK01,W
011F   00??           00548         MOVWF   r0x1016
0120   08??           00549         MOVF    STK02,W
0121   00??           00550         MOVWF   r0x1015
0122   00??           00551         MOVWF   r0x1019
0123   00??           00552         MOVWF   STK00
0124   3000           00553         MOVLW   0x00
0125   2???           00554         CALL    _SSD_SET_Symbol
                      00555 ;       .line   114; "SSD.c"    SSD_SET_Symbol(SSD_R,Readings.temp_read %10);
0126   ???? ????      00556         BANKSEL _Readings
0128   08??           00557         MOVF    (_Readings + 0),W
0129   ???? ????      00558         BANKSEL r0x1015
012B   00??           00559         MOVWF   r0x1015
012C   ???? ????      00560         BANKSEL _Readings
012E   08??           00561         MOVF    (_Readings + 1),W
012F   ???? ????      00562         BANKSEL r0x1016
0131   00??           00563         MOVWF   r0x1016
0132   ???? ????      00564         BANKSEL _Readings
0134   08??           00565         MOVF    (_Readings + 2),W
0135   ???? ????      00566         BANKSEL r0x1017
0137   00??           00567         MOVWF   r0x1017
0138   ???? ????      00568         BANKSEL _Readings
013A   08??           00569         MOVF    (_Readings + 3),W
013B   ???? ????      00570         BANKSEL r0x1018
013D   00??           00571         MOVWF   r0x1018
013E   300A           00572         MOVLW   0x0a
013F   00??           00573         MOVWF   STK06
gpasm-1.4.0 #1106 (Oct  6 2014) obj\Release\S   7-19-2020  20:05:24         PAGE 12


LOC    OBJECT CODE    LINE  SOURCE TEXT
  VALUE

0140   3000           00574         MOVLW   0x00
0141   00??           00575         MOVWF   STK05
0142   3000           00576         MOVLW   0x00
0143   00??           00577         MOVWF   STK04
0144   3000           00578         MOVLW   0x00
0145   00??           00579         MOVWF   STK03
0146   08??           00580         MOVF    r0x1015,W
0147   00??           00581         MOVWF   STK02
0148   08??           00582         MOVF    r0x1016,W
0149   00??           00583         MOVWF   STK01
014A   08??           00584         MOVF    r0x1017,W
014B   00??           00585         MOVWF   STK00
014C   08??           00586         MOVF    r0x1018,W
014D   ???? ????      00587         PAGESEL __modulong
014F   2???           00588         CALL    __modulong
0150   ???? ????      00589         PAGESEL $
0152   ???? ????      00590         BANKSEL r0x1018
0154   00??           00591         MOVWF   r0x1018
0155   08??           00592         MOVF    STK00,W
0156   00??           00593         MOVWF   r0x1017
0157   08??           00594         MOVF    STK01,W
0158   00??           00595         MOVWF   r0x1016
0159   08??           00596         MOVF    STK02,W
015A   00??           00597         MOVWF   r0x1015
015B   00??           00598         MOVWF   r0x1019
015C   00??           00599         MOVWF   STK00
015D   3001           00600         MOVLW   0x01
015E   2???           00601         CALL    _SSD_SET_Symbol
015F                  00602 _00169_DS_
                      00603 ;       .line   116; "SSD.c"    SSD_SET_state(SSD_MR,SSD_OFF);
015F   3000           00604         MOVLW   0x00
0160   00??           00605         MOVWF   STK00
0161   3000           00606         MOVLW   0x00
0162   2???           00607         CALL    _SSD_SET_state
                      00608 ;       .line   117; "SSD.c"    SSD_SET_state(SSD_R,SSD_OFF);
0163   3000           00609         MOVLW   0x00
0164   00??           00610         MOVWF   STK00
0165   3001           00611         MOVLW   0x01
0166   2???           00612         CALL    _SSD_SET_state
                      00613 ;       .line   118; "SSD.c"    GPIO_SetPortState(SSD_DataPORT,symbols[SSD_symbols[current_ssd]]);
0167   ???? ????      00614         BANKSEL _SSD_update_current_ssd_1_69
0169   08??           00615         MOVF    _SSD_update_current_ssd_1_69,W
016A   3E??           00616         ADDLW   (_SSD_symbols + 0)
016B   ???? ????      00617         BANKSEL r0x1015
016D   00??           00618         MOVWF   r0x1015
016E   30??           00619         MOVLW   high (_SSD_symbols + 0)
016F   1803           00620         BTFSC   STATUS,0
0170   3E01           00621         ADDLW   0x01
0171   00??           00622         MOVWF   r0x1016
0172   08??           00623         MOVF    r0x1015,W
0173   1283 1303      00624         BANKSEL FSR
0175   0084           00625         MOVWF   FSR
0176   1383           00626         BCF     STATUS,7
gpasm-1.4.0 #1106 (Oct  6 2014) obj\Release\S   7-19-2020  20:05:24         PAGE 13


LOC    OBJECT CODE    LINE  SOURCE TEXT
  VALUE

0177   ???? ????      00627         BANKSEL r0x1016
0179   18??           00628         BTFSC   r0x1016,0
017A   1783           00629         BSF     STATUS,7
017B   1283 1303      00630         BANKSEL INDF
017D   0800           00631         MOVF    INDF,W
017E   ???? ????      00632         BANKSEL r0x1017
0180   00??           00633         MOVWF   r0x1017
0181   3E??           00634         ADDLW   (_symbols + 0)
0182   00??           00635         MOVWF   r0x1015
0183   30??           00636         MOVLW   high (_symbols + 0)
0184   1803           00637         BTFSC   STATUS,0
0185   3E01           00638         ADDLW   0x01
0186   00??           00639         MOVWF   r0x1016
0187   08??           00640         MOVF    r0x1015,W
0188   00??           00641         MOVWF   STK01
0189   08??           00642         MOVF    r0x1016,W
018A   00??           00643         MOVWF   STK00
018B   3080           00644         MOVLW   0x80
018C   ???? ????      00645         PAGESEL __gptrget1
018E   2???           00646         CALL    __gptrget1
018F   ???? ????      00647         PAGESEL $
0191   ???? ????      00648         BANKSEL r0x1017
0193   00??           00649         MOVWF   r0x1017
0194   00??           00650         MOVWF   STK00
0195   3003           00651         MOVLW   0x03
0196   ???? ????      00652         PAGESEL _GPIO_SetPortState
0198   2???           00653         CALL    _GPIO_SetPortState
0199   ???? ????      00654         PAGESEL $
                      00655 ;       .line   119; "SSD.c"    SSD_SET_state(current_ssd,Flags.next_state);
019B   ???? ????      00656         BANKSEL _Flags
019D   08??           00657         MOVF    (_Flags + 0),W
019E   ???? ????      00658         BANKSEL r0x1015
01A0   00??           00659         MOVWF   r0x1015
01A1   00??           00660         MOVWF   STK00
01A2   ???? ????      00661         BANKSEL _SSD_update_current_ssd_1_69
01A4   08??           00662         MOVF    _SSD_update_current_ssd_1_69,W
01A5   2???           00663         CALL    _SSD_SET_state
                      00664 ;       .line   120; "SSD.c"    if(current_ssd == SSD_R)
01A6   ???? ????      00665         BANKSEL _SSD_update_current_ssd_1_69
01A8   08??           00666         MOVF    _SSD_update_current_ssd_1_69,W
01A9   3A01           00667         XORLW   0x01
01AA   1D03           00668         BTFSS   STATUS,2
01AB   2???           00669         GOTO    _00171_DS_
                      00670 ;       .line   122; "SSD.c"    current_ssd  = SSD_MR;
01AC   01??           00671         CLRF    _SSD_update_current_ssd_1_69
01AD   2???           00672         GOTO    _00173_DS_
01AE                  00673 _00171_DS_
                      00674 ;       .line   127; "SSD.c"    current_ssd++;
01AE   ???? ????      00675         BANKSEL _SSD_update_current_ssd_1_69
01B0   0A??           00676         INCF    _SSD_update_current_ssd_1_69,F
01B1                  00677 _00173_DS_
01B1   0008           00678         RETURN  
                      00679 ; exit point of _SSD_update
gpasm-1.4.0 #1106 (Oct  6 2014) obj\Release\S   7-19-2020  20:05:24         PAGE 14


LOC    OBJECT CODE    LINE  SOURCE TEXT
  VALUE

                      00680 
                      00681 ;***
                      00682 ;  pBlock Stats: dbName = C
                      00683 ;***
                      00684 ;entry:  _SSD_GET_Symbol        ;Function start
                      00685 ; 2 exit points
                      00686 ;has an exit
                      00687 ;3 compiler assigned registers:
                      00688 ;   r0x101A
                      00689 ;   r0x101B
                      00690 ;   r0x101C
                      00691 ;; Starting pCode block
01B2                  00692 _SSD_GET_Symbol ;Function start
                      00693 ; 2 exit points
                      00694 ;       .line   92; "SSD.c"     SSD_symbol SSD_GET_Symbol(tSSD ssd)
01B2   ???? ????      00695         BANKSEL r0x101A
01B4   00??           00696         MOVWF   r0x101A
                      00697 ;       .line   97; "SSD.c"     ret = SSD_symbols[ssd];
01B5   3E??           00698         ADDLW   (_SSD_symbols + 0)
01B6   00??           00699         MOVWF   r0x101A
01B7   30??           00700         MOVLW   high (_SSD_symbols + 0)
01B8   1803           00701         BTFSC   STATUS,0
01B9   3E01           00702         ADDLW   0x01
01BA   00??           00703         MOVWF   r0x101B
01BB   08??           00704         MOVF    r0x101A,W
01BC   1283 1303      00705         BANKSEL FSR
01BE   0084           00706         MOVWF   FSR
01BF   1383           00707         BCF     STATUS,7
01C0   ???? ????      00708         BANKSEL r0x101B
01C2   18??           00709         BTFSC   r0x101B,0
01C3   1783           00710         BSF     STATUS,7
01C4   1283 1303      00711         BANKSEL INDF
01C6   0800           00712         MOVF    INDF,W
                      00713 ;;1     MOVWF   r0x101C
                      00714 ;       .line   99; "SSD.c"     return ret;
01C7   0008           00715         RETURN  
                      00716 ; exit point of _SSD_GET_Symbol
                      00717 
                      00718 ;***
                      00719 ;  pBlock Stats: dbName = C
                      00720 ;***
                      00721 ;entry:  _SSD_GET_state ;Function start
                      00722 ; 2 exit points
                      00723 ;has an exit
                      00724 ;functions called:
                      00725 ;   _GPIO_GetPortPinState
                      00726 ;   _GPIO_GetPortPinState
                      00727 ;   _GPIO_GetPortPinState
                      00728 ;   _GPIO_GetPortPinState
                      00729 ;3 compiler assigned registers:
                      00730 ;   r0x101D
                      00731 ;   r0x101E
                      00732 ;   STK00
gpasm-1.4.0 #1106 (Oct  6 2014) obj\Release\S   7-19-2020  20:05:24         PAGE 15


LOC    OBJECT CODE    LINE  SOURCE TEXT
  VALUE

                      00733 ;; Starting pCode block
01C8                  00734 _SSD_GET_state  ;Function start
                      00735 ; 2 exit points
                      00736 ;       .line   72; "SSD.c"     SSD_STATE SSD_GET_state(tSSD ssd)
01C8   ???? ????      00737         BANKSEL r0x101D
01CA   00??           00738         MOVWF   r0x101D
                      00739 ;       .line   74; "SSD.c"     switch(ssd)
01CB   00??           00740         MOVWF   r0x101E
01CC   08??           00741         MOVF    r0x101E,W
01CD   1903           00742         BTFSC   STATUS,2
01CE   2???           00743         GOTO    _00145_DS_
01CF   08??           00744         MOVF    r0x101D,W
01D0   3A01           00745         XORLW   0x01
01D1   1903           00746         BTFSC   STATUS,2
01D2   2???           00747         GOTO    _00146_DS_
01D3   2???           00748         GOTO    _00147_DS_
01D4                  00749 _00145_DS_
                      00750 ;       .line   78; "SSD.c"     return GPIO_GetPortPinState(SSD_En_PORT,SSD_MR_En_Pin);
01D4   3004           00751         MOVLW   0x04
01D5   00??           00752         MOVWF   STK00
01D6   3000           00753         MOVLW   0x00
01D7   ???? ????      00754         PAGESEL _GPIO_GetPortPinState
01D9   2???           00755         CALL    _GPIO_GetPortPinState
01DA   ???? ????      00756         PAGESEL $
01DC   ???? ????      00757         BANKSEL r0x101D
01DE   00??           00758         MOVWF   r0x101D
01DF   2???           00759         GOTO    _00149_DS_
01E0                  00760 _00146_DS_
                      00761 ;       .line   81; "SSD.c"     return GPIO_GetPortPinState(SSD_En_PORT,SSD_R_En_Pin);
01E0   3005           00762         MOVLW   0x05
01E1   00??           00763         MOVWF   STK00
01E2   3000           00764         MOVLW   0x00
01E3   ???? ????      00765         PAGESEL _GPIO_GetPortPinState
01E5   2???           00766         CALL    _GPIO_GetPortPinState
01E6   ???? ????      00767         PAGESEL $
01E8   ???? ????      00768         BANKSEL r0x101D
01EA   00??           00769         MOVWF   r0x101D
01EB   2???           00770         GOTO    _00149_DS_
01EC                  00771 _00147_DS_
                      00772 ;       .line   85; "SSD.c"     return 0;
01EC   3000           00773         MOVLW   0x00
01ED                  00774 _00149_DS_
                      00775 ;       .line   87; "SSD.c"     }
01ED   0008           00776         RETURN  
                      00777 ; exit point of _SSD_GET_state
                      00778 
                      00779 ;***
                      00780 ;  pBlock Stats: dbName = C
                      00781 ;***
                      00782 ;entry:  _SSD_SET_Symbol        ;Function start
                      00783 ; 2 exit points
                      00784 ;has an exit
                      00785 ;4 compiler assigned registers:
gpasm-1.4.0 #1106 (Oct  6 2014) obj\Release\S   7-19-2020  20:05:24         PAGE 16


LOC    OBJECT CODE    LINE  SOURCE TEXT
  VALUE

                      00786 ;   r0x1012
                      00787 ;   STK00
                      00788 ;   r0x1013
                      00789 ;   r0x1014
                      00790 ;; Starting pCode block
01EE                  00791 _SSD_SET_Symbol ;Function start
                      00792 ; 2 exit points
                      00793 ;       .line   66; "SSD.c"     void SSD_SET_Symbol(tSSD ssd,SSD_symbol symbol)
01EE   ???? ????      00794         BANKSEL r0x1012
01F0   00??           00795         MOVWF   r0x1012
01F1   08??           00796         MOVF    STK00,W
01F2   00??           00797         MOVWF   r0x1013
                      00798 ;       .line   68; "SSD.c"     SSD_symbols[ssd] = symbol ;
01F3   08??           00799         MOVF    r0x1012,W
01F4   3E??           00800         ADDLW   (_SSD_symbols + 0)
01F5   00??           00801         MOVWF   r0x1012
01F6   30??           00802         MOVLW   high (_SSD_symbols + 0)
01F7   1803           00803         BTFSC   STATUS,0
01F8   3E01           00804         ADDLW   0x01
01F9   00??           00805         MOVWF   r0x1014
01FA   08??           00806         MOVF    r0x1012,W
01FB   1283 1303      00807         BANKSEL FSR
01FD   0084           00808         MOVWF   FSR
01FE   1383           00809         BCF     STATUS,7
01FF   ???? ????      00810         BANKSEL r0x1014
0201   18??           00811         BTFSC   r0x1014,0
0202   1783           00812         BSF     STATUS,7
0203   08??           00813         MOVF    r0x1013,W
0204   1283 1303      00814         BANKSEL INDF
0206   0080           00815         MOVWF   INDF
0207   0008           00816         RETURN  
                      00817 ; exit point of _SSD_SET_Symbol
                      00818 
                      00819 ;***
                      00820 ;  pBlock Stats: dbName = C
                      00821 ;***
                      00822 ;entry:  _SSD_SET_state ;Function start
                      00823 ; 2 exit points
                      00824 ;has an exit
                      00825 ;functions called:
                      00826 ;   _GPIO_SetPortPinState
                      00827 ;   _GPIO_SetPortPinState
                      00828 ;   _GPIO_SetPortPinState
                      00829 ;   _GPIO_SetPortPinState
                      00830 ;5 compiler assigned registers:
                      00831 ;   r0x1012
                      00832 ;   STK00
                      00833 ;   r0x1013
                      00834 ;   r0x1014
                      00835 ;   STK01
                      00836 ;; Starting pCode block
0208                  00837 _SSD_SET_state  ;Function start
                      00838 ; 2 exit points
gpasm-1.4.0 #1106 (Oct  6 2014) obj\Release\S   7-19-2020  20:05:24         PAGE 17


LOC    OBJECT CODE    LINE  SOURCE TEXT
  VALUE

                      00839 ;       .line   48; "SSD.c"     void SSD_SET_state(tSSD ssd,SSD_STATE state)
0208   ???? ????      00840         BANKSEL r0x1012
020A   00??           00841         MOVWF   r0x1012
020B   08??           00842         MOVF    STK00,W
020C   00??           00843         MOVWF   r0x1013
                      00844 ;       .line   50; "SSD.c"     switch(ssd)
020D   08??           00845         MOVF    r0x1012,W
                      00846 ;;1     MOVWF   r0x1014
020E   1903           00847         BTFSC   STATUS,2
020F   2???           00848         GOTO    _00123_DS_
0210   08??           00849         MOVF    r0x1012,W
0211   3A01           00850         XORLW   0x01
0212   1903           00851         BTFSC   STATUS,2
0213   2???           00852         GOTO    _00124_DS_
0214   2???           00853         GOTO    _00127_DS_
0215                  00854 _00123_DS_
                      00855 ;       .line   54; "SSD.c"     GPIO_SetPortPinState(SSD_En_PORT,SSD_MR_En_Pin,state);
0215   ???? ????      00856         BANKSEL r0x1013
0217   08??           00857         MOVF    r0x1013,W
0218   00??           00858         MOVWF   STK01
0219   3004           00859         MOVLW   0x04
021A   00??           00860         MOVWF   STK00
021B   3000           00861         MOVLW   0x00
021C   ???? ????      00862         PAGESEL _GPIO_SetPortPinState
021E   2???           00863         CALL    _GPIO_SetPortPinState
021F   ???? ????      00864         PAGESEL $
                      00865 ;       .line   55; "SSD.c"     break;
0221   2???           00866         GOTO    _00127_DS_
0222                  00867 _00124_DS_
                      00868 ;       .line   57; "SSD.c"     GPIO_SetPortPinState(SSD_En_PORT,SSD_R_En_Pin,state);
0222   ???? ????      00869         BANKSEL r0x1013
0224   08??           00870         MOVF    r0x1013,W
0225   00??           00871         MOVWF   STK01
0226   3005           00872         MOVLW   0x05
0227   00??           00873         MOVWF   STK00
0228   3000           00874         MOVLW   0x00
0229   ???? ????      00875         PAGESEL _GPIO_SetPortPinState
022B   2???           00876         CALL    _GPIO_SetPortPinState
022C   ???? ????      00877         PAGESEL $
022E                  00878 _00127_DS_
                      00879 ;       .line   62; "SSD.c"     }
022E   0008           00880         RETURN  
                      00881 ; exit point of _SSD_SET_state
                      00882 
                      00883 ;***
                      00884 ;  pBlock Stats: dbName = C
                      00885 ;***
                      00886 ;entry:  _SSD_Init      ;Function start
                      00887 ; 2 exit points
                      00888 ;has an exit
                      00889 ;functions called:
                      00890 ;   _GPIO_InitPort
                      00891 ;   __gptrget1
gpasm-1.4.0 #1106 (Oct  6 2014) obj\Release\S   7-19-2020  20:05:24         PAGE 18


LOC    OBJECT CODE    LINE  SOURCE TEXT
  VALUE

                      00892 ;   _GPIO_SetPortState
                      00893 ;   _GPIO_InitPortPin
                      00894 ;   _GPIO_InitPortPin
                      00895 ;   _SSD_SET_state
                      00896 ;   _SSD_SET_Symbol
                      00897 ;   _GPIO_InitPort
                      00898 ;   __gptrget1
                      00899 ;   _GPIO_SetPortState
                      00900 ;   _GPIO_InitPortPin
                      00901 ;   _GPIO_InitPortPin
                      00902 ;   _SSD_SET_state
                      00903 ;   _SSD_SET_Symbol
                      00904 ;6 compiler assigned registers:
                      00905 ;   r0x101F
                      00906 ;   STK00
                      00907 ;   r0x1020
                      00908 ;   STK01
                      00909 ;   r0x1021
                      00910 ;   r0x1022
                      00911 ;; Starting pCode block
022F                  00912 _SSD_Init       ;Function start
                      00913 ; 2 exit points
                      00914 ;       .line   23; "SSD.c"     void SSD_Init(tSSD ssd,SSD_STATE initial_state, SSD_symbol initial_symbo
                            l)
022F   ???? ????      00915         BANKSEL r0x101F
0231   00??           00916         MOVWF   r0x101F
0232   08??           00917         MOVF    STK00,W
0233   00??           00918         MOVWF   r0x1020
0234   08??           00919         MOVF    STK01,W
0235   00??           00920         MOVWF   r0x1021
                      00921 ;       .line   27; "SSD.c"     GPIO_InitPort(SSD_DataPORT,GPIO_OUT);
0236   3000           00922         MOVLW   0x00
0237   00??           00923         MOVWF   STK00
0238   3003           00924         MOVLW   0x03
0239   ???? ????      00925         PAGESEL _GPIO_InitPort
023B   2???           00926         CALL    _GPIO_InitPort
023C   ???? ????      00927         PAGESEL $
                      00928 ;       .line   28; "SSD.c"     GPIO_SetPortState(SSD_DataPORT,symbols[SSD_NULL]);
023E   30??           00929         MOVLW   (_symbols + 10)
023F   00??           00930         MOVWF   STK01
0240   30??           00931         MOVLW   high (_symbols + 10)
0241   00??           00932         MOVWF   STK00
0242   3080           00933         MOVLW   0x80
0243   ???? ????      00934         PAGESEL __gptrget1
0245   2???           00935         CALL    __gptrget1
0246   ???? ????      00936         PAGESEL $
0248   ???? ????      00937         BANKSEL r0x1022
024A   00??           00938         MOVWF   r0x1022
024B   00??           00939         MOVWF   STK00
024C   3003           00940         MOVLW   0x03
024D   ???? ????      00941         PAGESEL _GPIO_SetPortState
024F   2???           00942         CALL    _GPIO_SetPortState
0250   ???? ????      00943         PAGESEL $
gpasm-1.4.0 #1106 (Oct  6 2014) obj\Release\S   7-19-2020  20:05:24         PAGE 19


LOC    OBJECT CODE    LINE  SOURCE TEXT
  VALUE

                      00944 ;       .line   30; "SSD.c"     switch(ssd)
0252   ???? ????      00945         BANKSEL r0x101F
0254   08??           00946         MOVF    r0x101F,W
0255   00??           00947         MOVWF   r0x1022
0256   1903           00948         BTFSC   STATUS,2
0257   2???           00949         GOTO    _00105_DS_
0258   08??           00950         MOVF    r0x101F,W
0259   3A01           00951         XORLW   0x01
025A   1903           00952         BTFSC   STATUS,2
025B   2???           00953         GOTO    _00106_DS_
025C   2???           00954         GOTO    _00108_DS_
025D                  00955 _00105_DS_
                      00956 ;       .line   34; "SSD.c"     GPIO_InitPortPin(SSD_En_PORT,SSD_MR_En_Pin,GPIO_OUT);
025D   3000           00957         MOVLW   0x00
025E   00??           00958         MOVWF   STK01
025F   3004           00959         MOVLW   0x04
0260   00??           00960         MOVWF   STK00
0261   3000           00961         MOVLW   0x00
0262   ???? ????      00962         PAGESEL _GPIO_InitPortPin
0264   2???           00963         CALL    _GPIO_InitPortPin
0265   ???? ????      00964         PAGESEL $
                      00965 ;       .line   35; "SSD.c"     break;
0267   2???           00966         GOTO    _00108_DS_
0268                  00967 _00106_DS_
                      00968 ;       .line   37; "SSD.c"     GPIO_InitPortPin(SSD_En_PORT,SSD_R_En_Pin,GPIO_OUT);
0268   3000           00969         MOVLW   0x00
0269   00??           00970         MOVWF   STK01
026A   3005           00971         MOVLW   0x05
026B   00??           00972         MOVWF   STK00
026C   3000           00973         MOVLW   0x00
026D   ???? ????      00974         PAGESEL _GPIO_InitPortPin
026F   2???           00975         CALL    _GPIO_InitPortPin
0270   ???? ????      00976         PAGESEL $
0272                  00977 _00108_DS_
                      00978 ;       .line   44; "SSD.c"     SSD_SET_state(ssd,initial_state);
0272   ???? ????      00979         BANKSEL r0x1020
0274   08??           00980         MOVF    r0x1020,W
0275   00??           00981         MOVWF   STK00
0276   08??           00982         MOVF    r0x101F,W
0277   ???? ????      00983         PAGESEL _SSD_SET_state
0279   2???           00984         CALL    _SSD_SET_state
027A   ???? ????      00985         PAGESEL $
                      00986 ;       .line   45; "SSD.c"     SSD_SET_Symbol(ssd, initial_symbol);
027C   ???? ????      00987         BANKSEL r0x1021
027E   08??           00988         MOVF    r0x1021,W
027F   00??           00989         MOVWF   STK00
0280   08??           00990         MOVF    r0x101F,W
0281   ???? ????      00991         PAGESEL _SSD_SET_Symbol
0283   2???           00992         CALL    _SSD_SET_Symbol
0284   ???? ????      00993         PAGESEL $
0286   0008           00994         RETURN  
                      00995 ; exit point of _SSD_Init
                      00996 
gpasm-1.4.0 #1106 (Oct  6 2014) obj\Release\S   7-19-2020  20:05:24         PAGE 20


LOC    OBJECT CODE    LINE  SOURCE TEXT
  VALUE

                      00997 
                      00998 ;       code size estimation:
                      00999 ;         419+  114 =   533 instructions ( 1294 byte)
                      01000 
                      01001         end
gpasm-1.4.0 #1106 (Oct  6 2014) obj\Release\S   7-19-2020  20:05:24         PAGE 21


SYMBOL TABLE
  LABEL                             VALUE

ACKDT                             00000005
ACKEN                             00000004
ACKSTAT                           00000006
ADCON0                            0000001F
ADCON1                            0000009F
ADCS0                             00000006
ADCS1                             00000007
ADCS2                             00000006
ADDEN                             00000003
ADFM                              00000007
ADIE                              00000006
ADIF                              00000006
ADON                              00000000
ADRESH                            0000001E
ADRESL                            0000009E
BCLIE                             00000003
BCLIF                             00000003
BF                                00000000
BRGH                              00000002
C                                 00000000
C1INV                             00000004
C1OUT                             00000006
C2INV                             00000005
C2OUT                             00000007
CCP1CON                           00000017
CCP1IE                            00000002
CCP1IF                            00000002
CCP1M0                            00000000
CCP1M1                            00000001
CCP1M2                            00000002
CCP1M3                            00000003
CCP1X                             00000005
CCP1Y                             00000004
CCP2CON                           0000001D
CCP2IE                            00000000
CCP2IF                            00000000
CCP2M0                            00000000
CCP2M1                            00000001
CCP2M2                            00000002
CCP2M3                            00000003
CCP2X                             00000005
CCP2Y                             00000004
CCPR1                             00000015
CCPR1H                            00000016
CCPR1L                            00000015
CCPR2                             0000001B
CCPR2H                            0000001C
CCPR2L                            0000001B
CHS0                              00000003
CHS1                              00000004
CHS2                              00000005
CIS                               00000003
CKE                               00000006
gpasm-1.4.0 #1106 (Oct  6 2014) obj\Release\S   7-19-2020  20:05:24         PAGE 22


SYMBOL TABLE
  LABEL                             VALUE 

CKP                               00000004
CM0                               00000000
CM1                               00000001
CM2                               00000002
CMCON                             0000009C
CMIE                              00000006
CMIF                              00000006
CREN                              00000004
CSRC                              00000007
CVR0                              00000000
CVR1                              00000001
CVR2                              00000002
CVR3                              00000003
CVRCON                            0000009D
CVREN                             00000007
CVROE                             00000006
CVRR                              00000005
D                                 00000005
DATA_ADDRESS                      00000005
DC                                00000001
D_A                               00000005
D_NOT_A                           00000005
EEADR                             0000010D
EEADRH                            0000010F
EECON1                            0000018C
EECON2                            0000018D
EEDATA                            0000010C
EEDATH                            0000010E
EEIE                              00000004
EEIF                              00000004
EEPGD                             00000007
F                                 00000001
FERR                              00000002
FSR                               00000004
GCEN                              00000007
GIE                               00000007
GO                                00000002
GO_DONE                           00000002
GO_NOT_DONE                       00000002
I2C_DATA                          00000005
I2C_READ                          00000002
I2C_START                         00000003
I2C_STOP                          00000004
IBF                               00000007
IBOV                              00000005
INDF                              00000000
INTCON                            0000000B
INTE                              00000004
INTEDG                            00000006
INTF                              00000001
IRP                               00000007
NOT_A                             00000005
NOT_ADDRESS                       00000005
gpasm-1.4.0 #1106 (Oct  6 2014) obj\Release\S   7-19-2020  20:05:24         PAGE 23


SYMBOL TABLE
  LABEL                             VALUE 

NOT_BO                            00000000
NOT_BOR                           00000000
NOT_DONE                          00000002
NOT_PD                            00000003
NOT_POR                           00000001
NOT_RBPU                          00000007
NOT_RC8                           00000006
NOT_T1SYNC                        00000002
NOT_TO                            00000004
NOT_TX8                           00000006
NOT_W                             00000002
NOT_WRITE                         00000002
OBF                               00000006
OERR                              00000001
OPTION_REG                        00000081
P                                 00000004
PCFG0                             00000000
PCFG1                             00000001
PCFG2                             00000002
PCFG3                             00000003
PCL                               00000002
PCLATH                            0000000A
PCON                              0000008E
PEIE                              00000006
PEN                               00000002
PIE1                              0000008C
PIE2                              0000008D
PIR1                              0000000C
PIR2                              0000000D
PORTA                             00000005
PORTB                             00000006
PORTC                             00000007
PORTD                             00000008
PORTE                             00000009
PR2                               00000092
PS0                               00000000
PS1                               00000001
PS2                               00000002
PSA                               00000003
PSAVE                             00000000
PSPIE                             00000007
PSPIF                             00000007
PSPMODE                           00000004
R                                 00000002
RA0                               00000000
RA1                               00000001
RA2                               00000002
RA3                               00000003
RA4                               00000004
RA5                               00000005
RB0                               00000000
RB1                               00000001
RB2                               00000002
gpasm-1.4.0 #1106 (Oct  6 2014) obj\Release\S   7-19-2020  20:05:24         PAGE 24


SYMBOL TABLE
  LABEL                             VALUE 

RB3                               00000003
RB4                               00000004
RB5                               00000005
RB6                               00000006
RB7                               00000007
RBIE                              00000003
RBIF                              00000000
RC0                               00000000
RC1                               00000001
RC2                               00000002
RC3                               00000003
RC4                               00000004
RC5                               00000005
RC6                               00000006
RC7                               00000007
RC8_9                             00000006
RC9                               00000006
RCD8                              00000000
RCEN                              00000003
RCIE                              00000005
RCIF                              00000005
RCREG                             0000001A
RCSTA                             00000018
RD                                00000000
RD0                               00000000
RD1                               00000001
RD2                               00000002
RD3                               00000003
RD4                               00000004
RD5                               00000005
RD6                               00000006
RD7                               00000007
RE0                               00000000
RE1                               00000001
RE2                               00000002
READ_WRITE                        00000002
RP0                               00000005
RP1                               00000006
RSEN                              00000001
RX9                               00000006
RX9D                              00000000
R_NOT_W                           00000002
R_W                               00000002
S                                 00000003
SEN                               00000000
SMP                               00000007
SPBRG                             00000099
SPEN                              00000007
SREN                              00000005
SSAVE                             00000000
SSPADD                            00000093
SSPBUF                            00000013
SSPCON                            00000014
gpasm-1.4.0 #1106 (Oct  6 2014) obj\Release\S   7-19-2020  20:05:24         PAGE 25


SYMBOL TABLE
  LABEL                             VALUE 

SSPCON2                           00000091
SSPEN                             00000005
SSPIE                             00000003
SSPIF                             00000003
SSPM0                             00000000
SSPM1                             00000001
SSPM2                             00000002
SSPM3                             00000003
SSPOV                             00000006
SSPSTAT                           00000094
STATUS                            00000003
STK00                             00000000
STK01                             00000000
STK02                             00000000
STK03                             00000000
STK04                             00000000
STK05                             00000000
STK06                             00000000
STK07                             00000000
STK08                             00000000
STK09                             00000000
STK10                             00000000
STK11                             00000000
STK12                             00000000
SYNC                              00000004
T0CS                              00000005
T0IE                              00000005
T0IF                              00000002
T0SE                              00000004
T1CKPS0                           00000004
T1CKPS1                           00000005
T1CON                             00000010
T1INSYNC                          00000002
T1OSCEN                           00000003
T1SYNC                            00000002
T2CKPS0                           00000000
T2CKPS1                           00000001
T2CON                             00000012
TMR0                              00000001
TMR0IE                            00000005
TMR0IF                            00000002
TMR1                              0000000E
TMR1CS                            00000001
TMR1H                             0000000F
TMR1IE                            00000000
TMR1IF                            00000000
TMR1L                             0000000E
TMR1ON                            00000000
TMR2                              00000011
TMR2IE                            00000001
TMR2IF                            00000001
TMR2ON                            00000002
TOUTPS0                           00000003
gpasm-1.4.0 #1106 (Oct  6 2014) obj\Release\S   7-19-2020  20:05:24         PAGE 26


SYMBOL TABLE
  LABEL                             VALUE 

TOUTPS1                           00000004
TOUTPS2                           00000005
TOUTPS3                           00000006
TRISA                             00000085
TRISA0                            00000000
TRISA1                            00000001
TRISA2                            00000002
TRISA3                            00000003
TRISA4                            00000004
TRISA5                            00000005
TRISB                             00000086
TRISB0                            00000000
TRISB1                            00000001
TRISB2                            00000002
TRISB3                            00000003
TRISB4                            00000004
TRISB5                            00000005
TRISB6                            00000006
TRISB7                            00000007
TRISC                             00000087
TRISC0                            00000000
TRISC1                            00000001
TRISC2                            00000002
TRISC3                            00000003
TRISC4                            00000004
TRISC5                            00000005
TRISC6                            00000006
TRISC7                            00000007
TRISD                             00000088
TRISD0                            00000000
TRISD1                            00000001
TRISD2                            00000002
TRISD3                            00000003
TRISD4                            00000004
TRISD5                            00000005
TRISD6                            00000006
TRISD7                            00000007
TRISE                             00000089
TRISE0                            00000000
TRISE1                            00000001
TRISE2                            00000002
TRMT                              00000001
TX8_9                             00000006
TX9                               00000006
TX9D                              00000000
TXD8                              00000000
TXEN                              00000005
TXIE                              00000004
TXIF                              00000004
TXREG                             00000019
TXSTA                             00000098
UA                                00000001
W                                 00000000
gpasm-1.4.0 #1106 (Oct  6 2014) obj\Release\S   7-19-2020  20:05:24         PAGE 27


SYMBOL TABLE
  LABEL                             VALUE 

WCOL                              00000007
WR                                00000001
WREN                              00000002
WRERR                             00000003
WSAVE                             00000000
Z                                 00000002
_00105_DS_                        0000025D
_00106_DS_                        00000268
_00108_DS_                        00000272
_00123_DS_                        00000215
_00124_DS_                        00000222
_00127_DS_                        0000022E
_00145_DS_                        000001D4
_00146_DS_                        000001E0
_00147_DS_                        000001EC
_00149_DS_                        000001ED
_00168_DS_                        000000B3
_00169_DS_                        0000015F
_00171_DS_                        000001AE
_00173_DS_                        000001B1
_ADCON0                           00000000
_ADCON0bits                       00000000
_ADCON1                           00000000
_ADCON1bits                       00000000
_ADC_GetResult                    00000000
_ADC_Init                         00000000
_ADC_Update                       00000000
_ADRESH                           00000000
_ADRESL                           00000000
_BODEN_OFF                        00003FBF
_BODEN_ON                         00003FFF
_BOREN_OFF                        00003FBF
_BOREN_ON                         00003FFF
_CCP1CON                          00000000
_CCP1CONbits                      00000000
_CCP2CON                          00000000
_CCP2CONbits                      00000000
_CCPR1                            00000000
_CCPR1H                           00000000
_CCPR1L                           00000000
_CCPR2                            00000000
_CCPR2H                           00000000
_CCPR2L                           00000000
_CMCON                            00000000
_CMCONbits                        00000000
_CONFIG                           00002007
_CPD_OFF                          00003FFF
_CPD_ON                           00003EFF
_CP_ALL                           00001FFF
_CP_OFF                           00003FFF
_CP_ON                            00001FFF
_CVRCON                           00000000
_CVRCONbits                       00000000
gpasm-1.4.0 #1106 (Oct  6 2014) obj\Release\S   7-19-2020  20:05:24         PAGE 28


SYMBOL TABLE
  LABEL                             VALUE 

_Cooler_GetState                  00000000
_Cooler_Init                      00000000
_Cooler_SetState                  00000000
_Cooler_update                    00000000
_Counters                         00000000
_DEBUG_OFF                        00003FFF
_DEBUG_ON                         000037FF
_DEVID1                           00002006
_EEADR                            00000000
_EEADRH                           00000000
_EECON1                           00000000
_EECON1bits                       00000000
_EECON2                           00000000
_EEDATA                           00000000
_EEDATH                           00000000
_FOSC_EXTRC                       00003FFF
_FOSC_HS                          00003FFE
_FOSC_LP                          00003FFC
_FOSC_XT                          00003FFD
_FSR                              00000000
_Flags                            00000000
_GPIO_GetPortPinState             00000000
_GPIO_InitPort                    00000000
_GPIO_InitPortPin                 00000000
_GPIO_SetPortPinState             00000000
_GPIO_SetPortState                00000000
_GPIO_Update                      00000000
_HS_OSC                           00003FFE
_Heater_GetState                  00000000
_Heater_Init                      00000000
_Heater_update                    00000000
_I2C_Begin                        00000000
_I2C_End                          00000000
_I2C_Hold                         00000000
_I2C_Init                         00000000
_I2C_Read                         00000000
_I2C_Write                        00000000
_IDLOC0                           00002000
_IDLOC1                           00002001
_IDLOC2                           00002002
_IDLOC3                           00002003
_INDF                             00000000
_INTCON                           00000000
_INTCONbits                       00000000
_LED_GetState                     00000000
_LED_Init                         00000000
_LED_Update                       00000000
_LP_OSC                           00003FFC
_LVP_OFF                          00003F7F
_LVP_ON                           00003FFF
_OPTION_REG                       00000000
_OPTION_REGbits                   00000000
_PB_GetState                      00000000
gpasm-1.4.0 #1106 (Oct  6 2014) obj\Release\S   7-19-2020  20:05:24         PAGE 29


SYMBOL TABLE
  LABEL                             VALUE 

_PB_Init                          00000000
_PB_Update                        00000000
_PCL                              00000000
_PCLATH                           00000000
_PCON                             00000000
_PCONbits                         00000000
_PIE1                             00000000
_PIE1bits                         00000000
_PIE2                             00000000
_PIE2bits                         00000000
_PIR1                             00000000
_PIR1bits                         00000000
_PIR2                             00000000
_PIR2bits                         00000000
_PORTA                            00000000
_PORTAbits                        00000000
_PORTB                            00000000
_PORTBbits                        00000000
_PORTC                            00000000
_PORTCbits                        00000000
_PORTD                            00000000
_PORTDbits                        00000000
_PORTE                            00000000
_PORTEbits                        00000000
_PR2                              00000000
_PWRTE_OFF                        00003FFF
_PWRTE_ON                         00003FF7
_RCREG                            00000000
_RCSTA                            00000000
_RCSTAbits                        00000000
_RC_OSC                           00003FFF
_Readings                         00000000
_SPBRG                            00000000
_SSD_GET_Symbol                   000001B2
_SSD_GET_state                    000001C8
_SSD_Init                         0000022F
_SSD_SET_Symbol                   000001EE
_SSD_SET_state                    00000208
_SSD_symbols                      00000000
_SSD_update                       00000000
_SSD_update_current_ssd_1_69      00000010
_SSPADD                           00000000
_SSPBUF                           00000000
_SSPCON                           00000000
_SSPCON2                          00000000
_SSPCON2bits                      00000000
_SSPCONbits                       00000000
_SSPSTAT                          00000000
_SSPSTATbits                      00000000
_STATUS                           00000000
_STATUSbits                       00000000
_SettingMode_update               00000000
_Start_conversion_Int             00000000
gpasm-1.4.0 #1106 (Oct  6 2014) obj\Release\S   7-19-2020  20:05:24         PAGE 30


SYMBOL TABLE
  LABEL                             VALUE 

_T1CON                            00000000
_T1CONbits                        00000000
_T2CON                            00000000
_T2CONbits                        00000000
_TMR0                             00000000
_TMR0_Init                        00000000
_TMR0_Start                       00000000
_TMR0_Update                      00000000
_TMR1                             00000000
_TMR1H                            00000000
_TMR1L                            00000000
_TMR2                             00000000
_TRISA                            00000000
_TRISAbits                        00000000
_TRISB                            00000000
_TRISBbits                        00000000
_TRISC                            00000000
_TRISCbits                        00000000
_TRISD                            00000000
_TRISDbits                        00000000
_TRISE                            00000000
_TRISEbits                        00000000
_TXREG                            00000000
_TXSTA                            00000000
_TXSTAbits                        00000000
_Temprature_Init                  00000000
_Temprature_update                00000000
_UTIL_DelayMS                     00000000
_WDTE_OFF                         00003FFB
_WDTE_ON                          00003FFF
_WDT_OFF                          00003FFB
_WDT_ON                           00003FFF
_WRT_1FOURTH                      00003BFF
_WRT_256                          00003DFF
_WRT_HALF                         000039FF
_WRT_OFF                          00003FFF
_XT_OSC                           00003FFD
__16F877A                         00000001
__CODE_END                        00001FFF
__CODE_START                      00000000
__COMMON_RAM_END                  0000007F
__COMMON_RAM_START                00000070
__EEPROM_END                      000021FF
__EEPROM_START                    00002100
__VECTOR_INT                      00000004
__VECTOR_RESET                    00000000
__divulong                        00000000
__gptrget1                        00000000
__modulong                        00000000
_code_SSD_0030                    00000030
_code_SSD_004D                    0000004D
_code_SSD_006A                    0000006A
_code_SSD_00A3                    000000A3
gpasm-1.4.0 #1106 (Oct  6 2014) obj\Release\S   7-19-2020  20:05:24         PAGE 31


SYMBOL TABLE
  LABEL                             VALUE 

_code_SSD_00DD                    000000DD
_code_SSD_00FA                    000000FA
_code_SSD_0117                    00000117
_code_SSD_0150                    00000150
_code_SSD_018F                    0000018F
_code_SSD_0199                    00000199
_code_SSD_01DA                    000001DA
_code_SSD_01E6                    000001E6
_code_SSD_021F                    0000021F
_code_SSD_022C                    0000022C
_code_SSD_023C                    0000023C
_code_SSD_0246                    00000246
_code_SSD_0250                    00000250
_code_SSD_0265                    00000265
_code_SSD_0270                    00000270
_code_SSD_027A                    0000027A
_code_SSD_0284                    00000284
_display_flag                     00000000
_e2pex_update                     00000000
_e2pext_r                         00000000
_e2pext_w                         00000000
_symbols                          00000000
r0x1012                           00000004
r0x1013                           00000005
r0x1014                           00000006
r0x1015                           0000000B
r0x1016                           0000000C
r0x1017                           0000000D
r0x1018                           0000000E
r0x1019                           0000000F
r0x101A                           00000009
r0x101B                           0000000A
r0x101D                           00000007
r0x101E                           00000008
r0x101F                           00000000
r0x1020                           00000001
r0x1021                           00000002
r0x1022                           00000003

Errors   :     0
Warnings :     0 reported,     0 suppressed
Messages :     0 reported,     0 suppressed

