gpasm-1.4.0 #1106 (Oct  6 2014) obj\Release\T   7-19-2020  20:05:24         PAGE  1


LOC    OBJECT CODE    LINE  SOURCE TEXT
  VALUE

                      00001 ;--------------------------------------------------------
                      00002 ; File Created by SDCC : free open source ANSI-C Compiler
                      00003 ; Version 3.5.0 #9253 (Jun 20 2015) (MINGW32)
                      00004 ; This file was generated Sun Jul 19 20:05:24 2020
                      00005 ;--------------------------------------------------------
                      00006 ; PIC port for the 14-bit core
                      00007 ;--------------------------------------------------------
                      00008 ;       .file   "Temp.c"
                      00009         list    p=16f877a
                      00010         radix dec
                      00011         include "p16f877a.inc"
                      00001         LIST
                      00002 
                      00003 ;==========================================================================
                      00004 ; Build date : Aug 07 2014
                      00005 ;  MPASM PIC16F877A processor include
                      00006 ; 
                      00007 ;  (c) Copyright 1999-2014 Microchip Technology, All rights reserved
                      00008 ;==========================================================================
                      00009 
                      00567         LIST
                      00012 ;--------------------------------------------------------
                      00013 ; external declarations
                      00014 ;--------------------------------------------------------
  0000                00015         extern  _ADC_Init
  0000                00016         extern  _ADC_Update
  0000                00017         extern  _ADC_GetResult
  0000                00018         extern  _Start_conversion_Int
  0000                00019         extern  _GPIO_InitPortPin
  0000                00020         extern  _GPIO_InitPort
  0000                00021         extern  _GPIO_Update
  0000                00022         extern  _GPIO_SetPortPinState
  0000                00023         extern  _GPIO_SetPortState
  0000                00024         extern  _GPIO_GetPortPinState
  0000                00025         extern  _PB_Init
  0000                00026         extern  _PB_Update
  0000                00027         extern  _PB_GetState
  0000                00028         extern  _LED_Init
  0000                00029         extern  _LED_GetState
  0000                00030         extern  _LED_Update
  0000                00031         extern  _Heater_Init
  0000                00032         extern  _Heater_update
  0000                00033         extern  _Heater_GetState
  0000                00034         extern  _Cooler_Init
  0000                00035         extern  _Cooler_SetState
  0000                00036         extern  _Cooler_GetState
  0000                00037         extern  _Cooler_update
  0000                00038         extern  _I2C_Init
  0000                00039         extern  _I2C_Hold
  0000                00040         extern  _I2C_Begin
  0000                00041         extern  _I2C_End
  0000                00042         extern  _I2C_Write
  0000                00043         extern  _I2C_Read
gpasm-1.4.0 #1106 (Oct  6 2014) obj\Release\T   7-19-2020  20:05:24         PAGE  2


LOC    OBJECT CODE    LINE  SOURCE TEXT
  VALUE

  0000                00044         extern  _e2pext_r
  0000                00045         extern  _e2pext_w
  0000                00046         extern  _e2pex_update
  0000                00047         extern  _TMR0_Init
  0000                00048         extern  _TMR0_Update
  0000                00049         extern  _TMR0_Start
  0000                00050         extern  _UTIL_DelayMS
  0000                00051         extern  _SSD_Init
  0000                00052         extern  _SSD_SET_Symbol
  0000                00053         extern  _SSD_SET_state
  0000                00054         extern  _SSD_GET_state
  0000                00055         extern  _SSD_GET_Symbol
  0000                00056         extern  _SSD_update
  0000                00057         extern  _SettingMode_update
  0000                00058         extern  __mullong
  0000                00059         extern  ___ulong2fs
  0000                00060         extern  ___fsdiv
  0000                00061         extern  ___fs2ulong
  0000                00062         extern  _STATUSbits
  0000                00063         extern  _PORTAbits
  0000                00064         extern  _PORTBbits
  0000                00065         extern  _PORTCbits
  0000                00066         extern  _PORTDbits
  0000                00067         extern  _PORTEbits
  0000                00068         extern  _INTCONbits
  0000                00069         extern  _PIR1bits
  0000                00070         extern  _PIR2bits
  0000                00071         extern  _T1CONbits
  0000                00072         extern  _T2CONbits
  0000                00073         extern  _SSPCONbits
  0000                00074         extern  _CCP1CONbits
  0000                00075         extern  _RCSTAbits
  0000                00076         extern  _CCP2CONbits
  0000                00077         extern  _ADCON0bits
  0000                00078         extern  _OPTION_REGbits
  0000                00079         extern  _TRISAbits
  0000                00080         extern  _TRISBbits
  0000                00081         extern  _TRISCbits
  0000                00082         extern  _TRISDbits
  0000                00083         extern  _TRISEbits
  0000                00084         extern  _PIE1bits
  0000                00085         extern  _PIE2bits
  0000                00086         extern  _PCONbits
  0000                00087         extern  _SSPCON2bits
  0000                00088         extern  _SSPSTATbits
  0000                00089         extern  _TXSTAbits
  0000                00090         extern  _CMCONbits
  0000                00091         extern  _CVRCONbits
  0000                00092         extern  _ADCON1bits
  0000                00093         extern  _EECON1bits
  0000                00094         extern  _Counters
  0000                00095         extern  _Flags
  0000                00096         extern  _Readings
gpasm-1.4.0 #1106 (Oct  6 2014) obj\Release\T   7-19-2020  20:05:24         PAGE  3


LOC    OBJECT CODE    LINE  SOURCE TEXT
  VALUE

  0000                00097         extern  _INDF
  0000                00098         extern  _TMR0
  0000                00099         extern  _PCL
  0000                00100         extern  _STATUS
  0000                00101         extern  _FSR
  0000                00102         extern  _PORTA
  0000                00103         extern  _PORTB
  0000                00104         extern  _PORTC
  0000                00105         extern  _PORTD
  0000                00106         extern  _PORTE
  0000                00107         extern  _PCLATH
  0000                00108         extern  _INTCON
  0000                00109         extern  _PIR1
  0000                00110         extern  _PIR2
  0000                00111         extern  _TMR1
  0000                00112         extern  _TMR1L
  0000                00113         extern  _TMR1H
  0000                00114         extern  _T1CON
  0000                00115         extern  _TMR2
  0000                00116         extern  _T2CON
  0000                00117         extern  _SSPBUF
  0000                00118         extern  _SSPCON
  0000                00119         extern  _CCPR1
  0000                00120         extern  _CCPR1L
  0000                00121         extern  _CCPR1H
  0000                00122         extern  _CCP1CON
  0000                00123         extern  _RCSTA
  0000                00124         extern  _TXREG
  0000                00125         extern  _RCREG
  0000                00126         extern  _CCPR2
  0000                00127         extern  _CCPR2L
  0000                00128         extern  _CCPR2H
  0000                00129         extern  _CCP2CON
  0000                00130         extern  _ADRESH
  0000                00131         extern  _ADCON0
  0000                00132         extern  _OPTION_REG
  0000                00133         extern  _TRISA
  0000                00134         extern  _TRISB
  0000                00135         extern  _TRISC
  0000                00136         extern  _TRISD
  0000                00137         extern  _TRISE
  0000                00138         extern  _PIE1
  0000                00139         extern  _PIE2
  0000                00140         extern  _PCON
  0000                00141         extern  _SSPCON2
  0000                00142         extern  _PR2
  0000                00143         extern  _SSPADD
  0000                00144         extern  _SSPSTAT
  0000                00145         extern  _TXSTA
  0000                00146         extern  _SPBRG
  0000                00147         extern  _CMCON
  0000                00148         extern  _CVRCON
  0000                00149         extern  _ADRESL
gpasm-1.4.0 #1106 (Oct  6 2014) obj\Release\T   7-19-2020  20:05:24         PAGE  4


LOC    OBJECT CODE    LINE  SOURCE TEXT
  VALUE

  0000                00150         extern  _ADCON1
  0000                00151         extern  _EEDATA
  0000                00152         extern  _EEADR
  0000                00153         extern  _EEDATH
  0000                00154         extern  _EEADRH
  0000                00155         extern  _EECON1
  0000                00156         extern  _EECON2
                      00157 
  0000                00158         extern PSAVE
  0000                00159         extern SSAVE
  0000                00160         extern WSAVE
  0000                00161         extern STK12
  0000                00162         extern STK11
  0000                00163         extern STK10
  0000                00164         extern STK09
  0000                00165         extern STK08
  0000                00166         extern STK07
  0000                00167         extern STK06
  0000                00168         extern STK05
  0000                00169         extern STK04
  0000                00170         extern STK03
  0000                00171         extern STK02
  0000                00172         extern STK01
  0000                00173         extern STK00
                      00174 ;--------------------------------------------------------
                      00175 ; global declarations
                      00176 ;--------------------------------------------------------
  0000                00177         global  _Temprature_update
  0000                00178         global  _Temprature_Init
                      00179 
                      00180 ;--------------------------------------------------------
                      00181 ; global definitions
                      00182 ;--------------------------------------------------------
                      00183 ;--------------------------------------------------------
                      00184 ; absolute symbol definitions
                      00185 ;--------------------------------------------------------
                      00186 ;--------------------------------------------------------
                      00187 ; compiler-defined variables
                      00188 ;--------------------------------------------------------
                      00189 UDL_Temp_0      udata
0000                  00190 r0x1012 res     1
0001                  00191 r0x1013 res     1
0002                  00192 r0x1014 res     1
0003                  00193 r0x1015 res     1
0004                  00194 r0x1018 res     1
                      00195 ;--------------------------------------------------------
                      00196 ; initialized data
                      00197 ;--------------------------------------------------------
                      00198 ;--------------------------------------------------------
                      00199 ; overlayable items in internal ram 
                      00200 ;--------------------------------------------------------
                      00201 ;       udata_ovr
                      00202 ;--------------------------------------------------------
gpasm-1.4.0 #1106 (Oct  6 2014) obj\Release\T   7-19-2020  20:05:24         PAGE  5


LOC    OBJECT CODE    LINE  SOURCE TEXT
  VALUE

                      00203 ; code
                      00204 ;--------------------------------------------------------
                      00205 code_Temp       code
                      00206 ;***
                      00207 ;  pBlock Stats: dbName = C
                      00208 ;***
                      00209 ;entry:  _Temprature_update     ;Function start
                      00210 ; 2 exit points
                      00211 ;has an exit
                      00212 ;functions called:
                      00213 ;   _Temprature_Read
                      00214 ;   _ADC_GetResult
                      00215 ;   __mullong
                      00216 ;   ___ulong2fs
                      00217 ;   ___fsdiv
                      00218 ;   ___fs2ulong
                      00219 ;14 compiler assigned registers:
                      00220 ;   r0x1018
                      00221 ;   r0x1012
                      00222 ;   r0x1013
                      00223 ;   STK00
                      00224 ;   r0x1014
                      00225 ;   r0x1015
                      00226 ;   r0x1016
                      00227 ;   r0x1017
                      00228 ;   STK06
                      00229 ;   STK05
                      00230 ;   STK04
                      00231 ;   STK03
                      00232 ;   STK02
                      00233 ;   STK01
                      00234 ;; Starting pCode block
0000                  00235 _Temprature_update      ;Function start
                      00236 ; 2 exit points
0000                  00237 _Temprature_Read
                      00238 ;       .line   18; "Temp.c"    if(Counters.Temp_counter == 10)
0000   ???? ????      00239         BANKSEL _Counters
0002   08??           00240         MOVF    (_Counters + 5),W
0003   ???? ????      00241         BANKSEL r0x1012
0005   00??           00242         MOVWF   r0x1012
0006   3A0A           00243         XORLW   0x0a
0007   1D03           00244         BTFSS   STATUS,2
0008   2???           00245         GOTO    _00111_DS_
                      00246 ;       .line   20; "Temp.c"    Readings.temp_read = ADC_GetResult(2);
0009   3002           00247         MOVLW   0x02
000A   ???? ????      00248         PAGESEL _ADC_GetResult
000C   2???           00249         CALL    _ADC_GetResult
000D   ???? ????      00250         PAGESEL $
000F   ???? ????      00251         BANKSEL r0x1015
0011   00??           00252         MOVWF   r0x1015
0012   00??           00253         MOVWF   r0x1013
0013   08??           00254         MOVF    STK00,W
0014   00??           00255         MOVWF   r0x1012
gpasm-1.4.0 #1106 (Oct  6 2014) obj\Release\T   7-19-2020  20:05:24         PAGE  6


LOC    OBJECT CODE    LINE  SOURCE TEXT
  VALUE

0015   ???? ????      00256         BANKSEL _Readings
0017   00??           00257         MOVWF   (_Readings + 0)
0018   ???? ????      00258         BANKSEL r0x1014
001A   00??           00259         MOVWF   r0x1014
                      00260 ;;99    MOVF    r0x1013,W
                      00261 ;;1     CLRF    r0x1016
                      00262 ;;1     CLRF    r0x1017
                      00263 ;;/home/sdcc-builder/build/sdcc-build/orig/sdcc/src/pic14/gen.c:6461: size=3, offset=0, AOP_TYPE(res)=8
                      00264 ;;100   MOVF    r0x1014,W
                      00265 ;;/home/sdcc-builder/build/sdcc-build/orig/sdcc/src/pic14/gen.c:6461: size=2, offset=1, AOP_TYPE(res)=8
001B   08??           00266         MOVF    r0x1015,W
001C   ???? ????      00267         BANKSEL _Readings
001E   00??           00268         MOVWF   (_Readings + 1)
                      00269 ;;/home/sdcc-builder/build/sdcc-build/orig/sdcc/src/pic14/gen.c:6461: size=1, offset=2, AOP_TYPE(res)=8
001F   3000           00270         MOVLW   0x00
0020   00??           00271         MOVWF   (_Readings + 2)
0021   00??           00272         MOVWF   (_Readings + 3)
                      00273 ;       .line   21; "Temp.c"    Readings.temp_read = (Readings.temp_read*150*5)/(1.5*1023);
0022   ???? ????      00274         BANKSEL r0x1014
0024   08??           00275         MOVF    r0x1014,W
0025   00??           00276         MOVWF   STK06
0026   08??           00277         MOVF    r0x1015,W
0027   00??           00278         MOVWF   STK05
0028   3000           00279         MOVLW   0x00
0029   00??           00280         MOVWF   STK04
002A   3000           00281         MOVLW   0x00
002B   00??           00282         MOVWF   STK03
002C   30EE           00283         MOVLW   0xee
002D   00??           00284         MOVWF   STK02
002E   3002           00285         MOVLW   0x02
002F   00??           00286         MOVWF   STK01
0030   3000           00287         MOVLW   0x00
0031   00??           00288         MOVWF   STK00
0032   3000           00289         MOVLW   0x00
0033   ???? ????      00290         PAGESEL __mullong
0035   2???           00291         CALL    __mullong
0036   ???? ????      00292         PAGESEL $
0038   ???? ????      00293         BANKSEL r0x1015
003A   00??           00294         MOVWF   r0x1015
003B   08??           00295         MOVF    STK00,W
003C   00??           00296         MOVWF   r0x1014
003D   08??           00297         MOVF    STK01,W
003E   00??           00298         MOVWF   r0x1013
003F   08??           00299         MOVF    STK02,W
0040   00??           00300         MOVWF   r0x1012
0041   00??           00301         MOVWF   STK02
0042   08??           00302         MOVF    r0x1013,W
0043   00??           00303         MOVWF   STK01
0044   08??           00304         MOVF    r0x1014,W
0045   00??           00305         MOVWF   STK00
0046   08??           00306         MOVF    r0x1015,W
0047   ???? ????      00307         PAGESEL ___ulong2fs
0049   2???           00308         CALL    ___ulong2fs
gpasm-1.4.0 #1106 (Oct  6 2014) obj\Release\T   7-19-2020  20:05:24         PAGE  7


LOC    OBJECT CODE    LINE  SOURCE TEXT
  VALUE

004A   ???? ????      00309         PAGESEL $
004C   ???? ????      00310         BANKSEL r0x1015
004E   00??           00311         MOVWF   r0x1015
004F   08??           00312         MOVF    STK00,W
0050   00??           00313         MOVWF   r0x1014
0051   08??           00314         MOVF    STK01,W
0052   00??           00315         MOVWF   r0x1013
0053   08??           00316         MOVF    STK02,W
0054   00??           00317         MOVWF   r0x1012
0055   3000           00318         MOVLW   0x00
0056   00??           00319         MOVWF   STK06
0057   30D0           00320         MOVLW   0xd0
0058   00??           00321         MOVWF   STK05
0059   30BF           00322         MOVLW   0xbf
005A   00??           00323         MOVWF   STK04
005B   3044           00324         MOVLW   0x44
005C   00??           00325         MOVWF   STK03
005D   08??           00326         MOVF    r0x1012,W
005E   00??           00327         MOVWF   STK02
005F   08??           00328         MOVF    r0x1013,W
0060   00??           00329         MOVWF   STK01
0061   08??           00330         MOVF    r0x1014,W
0062   00??           00331         MOVWF   STK00
0063   08??           00332         MOVF    r0x1015,W
0064   ???? ????      00333         PAGESEL ___fsdiv
0066   2???           00334         CALL    ___fsdiv
0067   ???? ????      00335         PAGESEL $
0069   ???? ????      00336         BANKSEL r0x1015
006B   00??           00337         MOVWF   r0x1015
006C   08??           00338         MOVF    STK00,W
006D   00??           00339         MOVWF   r0x1014
006E   08??           00340         MOVF    STK01,W
006F   00??           00341         MOVWF   r0x1013
0070   08??           00342         MOVF    STK02,W
0071   00??           00343         MOVWF   r0x1012
0072   00??           00344         MOVWF   STK02
0073   08??           00345         MOVF    r0x1013,W
0074   00??           00346         MOVWF   STK01
0075   08??           00347         MOVF    r0x1014,W
0076   00??           00348         MOVWF   STK00
0077   08??           00349         MOVF    r0x1015,W
0078   ???? ????      00350         PAGESEL ___fs2ulong
007A   2???           00351         CALL    ___fs2ulong
007B   ???? ????      00352         PAGESEL $
007D   ???? ????      00353         BANKSEL r0x1015
007F   00??           00354         MOVWF   r0x1015
0080   08??           00355         MOVF    STK00,W
0081   00??           00356         MOVWF   r0x1014
0082   08??           00357         MOVF    STK01,W
0083   00??           00358         MOVWF   r0x1013
0084   08??           00359         MOVF    STK02,W
0085   00??           00360         MOVWF   r0x1012
0086   ???? ????      00361         BANKSEL _Readings
gpasm-1.4.0 #1106 (Oct  6 2014) obj\Release\T   7-19-2020  20:05:24         PAGE  8


LOC    OBJECT CODE    LINE  SOURCE TEXT
  VALUE

0088   00??           00362         MOVWF   (_Readings + 0)
                      00363 ;;/home/sdcc-builder/build/sdcc-build/orig/sdcc/src/pic14/gen.c:6461: size=2, offset=1, AOP_TYPE(res)=8
0089   ???? ????      00364         BANKSEL r0x1013
008B   08??           00365         MOVF    r0x1013,W
008C   ???? ????      00366         BANKSEL _Readings
008E   00??           00367         MOVWF   (_Readings + 1)
                      00368 ;;/home/sdcc-builder/build/sdcc-build/orig/sdcc/src/pic14/gen.c:6461: size=1, offset=2, AOP_TYPE(res)=8
008F   ???? ????      00369         BANKSEL r0x1014
0091   08??           00370         MOVF    r0x1014,W
0092   ???? ????      00371         BANKSEL _Readings
0094   00??           00372         MOVWF   (_Readings + 2)
                      00373 ;;/home/sdcc-builder/build/sdcc-build/orig/sdcc/src/pic14/gen.c:6461: size=0, offset=3, AOP_TYPE(res)=8
0095   ???? ????      00374         BANKSEL r0x1015
0097   08??           00375         MOVF    r0x1015,W
0098   ???? ????      00376         BANKSEL _Readings
009A   00??           00377         MOVWF   (_Readings + 3)
                      00378 ;;/home/sdcc-builder/build/sdcc-build/orig/sdcc/src/pic14/gen.c:6461: size=0, offset=0, AOP_TYPE(res)=8
                      00379 ;       .line   22; "Temp.c"    Counters.Temp_counter=0 ; // counter to read every 100ms one reading
009B   ???? ????      00380         BANKSEL _Counters
009D   01??           00381         CLRF    (_Counters + 5)
009E                  00382 _00111_DS_
                      00383 ;       .line   28; "Temp.c"    Counters.Temp_counter++;
009E   ???? ????      00384         BANKSEL _Counters
00A0   08??           00385         MOVF    (_Counters + 5),W
00A1   ???? ????      00386         BANKSEL r0x1018
00A3   00??           00387         MOVWF   r0x1018
00A4   0A??           00388         INCF    r0x1018,F
                      00389 ;;/home/sdcc-builder/build/sdcc-build/orig/sdcc/src/pic14/gen.c:6461: size=0, offset=0, AOP_TYPE(res)=8
00A5   08??           00390         MOVF    r0x1018,W
00A6   ???? ????      00391         BANKSEL _Counters
00A8   00??           00392         MOVWF   (_Counters + 5)
00A9   0008           00393         RETURN  
                      00394 ; exit point of _Temprature_update
                      00395 
                      00396 ;***
                      00397 ;  pBlock Stats: dbName = C
                      00398 ;***
                      00399 ;entry:  _Temprature_Init       ;Function start
                      00400 ; 2 exit points
                      00401 ;has an exit
                      00402 ;functions called:
                      00403 ;   _ADC_Init
                      00404 ;   _ADC_Init
                      00405 ;; Starting pCode block
00AA                  00406 _Temprature_Init        ;Function start
                      00407 ; 2 exit points
                      00408 ;       .line   4; "Temp.c"     ADC_Init(1); // 250ns sampling rate
00AA   3001           00409         MOVLW   0x01
00AB   ???? ????      00410         PAGESEL _ADC_Init
00AD   2???           00411         CALL    _ADC_Init
00AE   ???? ????      00412         PAGESEL $
00B0   0008           00413         RETURN  
                      00414 ; exit point of _Temprature_Init
gpasm-1.4.0 #1106 (Oct  6 2014) obj\Release\T   7-19-2020  20:05:24         PAGE  9


LOC    OBJECT CODE    LINE  SOURCE TEXT
  VALUE

                      00415 
                      00416 
                      00417 ;       code size estimation:
                      00418 ;         109+   34 =   143 instructions (  354 byte)
                      00419 
                      00420         end
gpasm-1.4.0 #1106 (Oct  6 2014) obj\Release\T   7-19-2020  20:05:24         PAGE 10


SYMBOL TABLE
  LABEL                             VALUE

ACKDT                             00000005
ACKEN                             00000004
ACKSTAT                           00000006
ADCON0                            0000001F
ADCON1                            0000009F
ADCS0                             00000006
ADCS1                             00000007
ADCS2                             00000006
ADDEN                             00000003
ADFM                              00000007
ADIE                              00000006
ADIF                              00000006
ADON                              00000000
ADRESH                            0000001E
ADRESL                            0000009E
BCLIE                             00000003
BCLIF                             00000003
BF                                00000000
BRGH                              00000002
C                                 00000000
C1INV                             00000004
C1OUT                             00000006
C2INV                             00000005
C2OUT                             00000007
CCP1CON                           00000017
CCP1IE                            00000002
CCP1IF                            00000002
CCP1M0                            00000000
CCP1M1                            00000001
CCP1M2                            00000002
CCP1M3                            00000003
CCP1X                             00000005
CCP1Y                             00000004
CCP2CON                           0000001D
CCP2IE                            00000000
CCP2IF                            00000000
CCP2M0                            00000000
CCP2M1                            00000001
CCP2M2                            00000002
CCP2M3                            00000003
CCP2X                             00000005
CCP2Y                             00000004
CCPR1                             00000015
CCPR1H                            00000016
CCPR1L                            00000015
CCPR2                             0000001B
CCPR2H                            0000001C
CCPR2L                            0000001B
CHS0                              00000003
CHS1                              00000004
CHS2                              00000005
CIS                               00000003
CKE                               00000006
gpasm-1.4.0 #1106 (Oct  6 2014) obj\Release\T   7-19-2020  20:05:24         PAGE 11


SYMBOL TABLE
  LABEL                             VALUE 

CKP                               00000004
CM0                               00000000
CM1                               00000001
CM2                               00000002
CMCON                             0000009C
CMIE                              00000006
CMIF                              00000006
CREN                              00000004
CSRC                              00000007
CVR0                              00000000
CVR1                              00000001
CVR2                              00000002
CVR3                              00000003
CVRCON                            0000009D
CVREN                             00000007
CVROE                             00000006
CVRR                              00000005
D                                 00000005
DATA_ADDRESS                      00000005
DC                                00000001
D_A                               00000005
D_NOT_A                           00000005
EEADR                             0000010D
EEADRH                            0000010F
EECON1                            0000018C
EECON2                            0000018D
EEDATA                            0000010C
EEDATH                            0000010E
EEIE                              00000004
EEIF                              00000004
EEPGD                             00000007
F                                 00000001
FERR                              00000002
FSR                               00000004
GCEN                              00000007
GIE                               00000007
GO                                00000002
GO_DONE                           00000002
GO_NOT_DONE                       00000002
I2C_DATA                          00000005
I2C_READ                          00000002
I2C_START                         00000003
I2C_STOP                          00000004
IBF                               00000007
IBOV                              00000005
INDF                              00000000
INTCON                            0000000B
INTE                              00000004
INTEDG                            00000006
INTF                              00000001
IRP                               00000007
NOT_A                             00000005
NOT_ADDRESS                       00000005
gpasm-1.4.0 #1106 (Oct  6 2014) obj\Release\T   7-19-2020  20:05:24         PAGE 12


SYMBOL TABLE
  LABEL                             VALUE 

NOT_BO                            00000000
NOT_BOR                           00000000
NOT_DONE                          00000002
NOT_PD                            00000003
NOT_POR                           00000001
NOT_RBPU                          00000007
NOT_RC8                           00000006
NOT_T1SYNC                        00000002
NOT_TO                            00000004
NOT_TX8                           00000006
NOT_W                             00000002
NOT_WRITE                         00000002
OBF                               00000006
OERR                              00000001
OPTION_REG                        00000081
P                                 00000004
PCFG0                             00000000
PCFG1                             00000001
PCFG2                             00000002
PCFG3                             00000003
PCL                               00000002
PCLATH                            0000000A
PCON                              0000008E
PEIE                              00000006
PEN                               00000002
PIE1                              0000008C
PIE2                              0000008D
PIR1                              0000000C
PIR2                              0000000D
PORTA                             00000005
PORTB                             00000006
PORTC                             00000007
PORTD                             00000008
PORTE                             00000009
PR2                               00000092
PS0                               00000000
PS1                               00000001
PS2                               00000002
PSA                               00000003
PSAVE                             00000000
PSPIE                             00000007
PSPIF                             00000007
PSPMODE                           00000004
R                                 00000002
RA0                               00000000
RA1                               00000001
RA2                               00000002
RA3                               00000003
RA4                               00000004
RA5                               00000005
RB0                               00000000
RB1                               00000001
RB2                               00000002
gpasm-1.4.0 #1106 (Oct  6 2014) obj\Release\T   7-19-2020  20:05:24         PAGE 13


SYMBOL TABLE
  LABEL                             VALUE 

RB3                               00000003
RB4                               00000004
RB5                               00000005
RB6                               00000006
RB7                               00000007
RBIE                              00000003
RBIF                              00000000
RC0                               00000000
RC1                               00000001
RC2                               00000002
RC3                               00000003
RC4                               00000004
RC5                               00000005
RC6                               00000006
RC7                               00000007
RC8_9                             00000006
RC9                               00000006
RCD8                              00000000
RCEN                              00000003
RCIE                              00000005
RCIF                              00000005
RCREG                             0000001A
RCSTA                             00000018
RD                                00000000
RD0                               00000000
RD1                               00000001
RD2                               00000002
RD3                               00000003
RD4                               00000004
RD5                               00000005
RD6                               00000006
RD7                               00000007
RE0                               00000000
RE1                               00000001
RE2                               00000002
READ_WRITE                        00000002
RP0                               00000005
RP1                               00000006
RSEN                              00000001
RX9                               00000006
RX9D                              00000000
R_NOT_W                           00000002
R_W                               00000002
S                                 00000003
SEN                               00000000
SMP                               00000007
SPBRG                             00000099
SPEN                              00000007
SREN                              00000005
SSAVE                             00000000
SSPADD                            00000093
SSPBUF                            00000013
SSPCON                            00000014
gpasm-1.4.0 #1106 (Oct  6 2014) obj\Release\T   7-19-2020  20:05:24         PAGE 14


SYMBOL TABLE
  LABEL                             VALUE 

SSPCON2                           00000091
SSPEN                             00000005
SSPIE                             00000003
SSPIF                             00000003
SSPM0                             00000000
SSPM1                             00000001
SSPM2                             00000002
SSPM3                             00000003
SSPOV                             00000006
SSPSTAT                           00000094
STATUS                            00000003
STK00                             00000000
STK01                             00000000
STK02                             00000000
STK03                             00000000
STK04                             00000000
STK05                             00000000
STK06                             00000000
STK07                             00000000
STK08                             00000000
STK09                             00000000
STK10                             00000000
STK11                             00000000
STK12                             00000000
SYNC                              00000004
T0CS                              00000005
T0IE                              00000005
T0IF                              00000002
T0SE                              00000004
T1CKPS0                           00000004
T1CKPS1                           00000005
T1CON                             00000010
T1INSYNC                          00000002
T1OSCEN                           00000003
T1SYNC                            00000002
T2CKPS0                           00000000
T2CKPS1                           00000001
T2CON                             00000012
TMR0                              00000001
TMR0IE                            00000005
TMR0IF                            00000002
TMR1                              0000000E
TMR1CS                            00000001
TMR1H                             0000000F
TMR1IE                            00000000
TMR1IF                            00000000
TMR1L                             0000000E
TMR1ON                            00000000
TMR2                              00000011
TMR2IE                            00000001
TMR2IF                            00000001
TMR2ON                            00000002
TOUTPS0                           00000003
gpasm-1.4.0 #1106 (Oct  6 2014) obj\Release\T   7-19-2020  20:05:24         PAGE 15


SYMBOL TABLE
  LABEL                             VALUE 

TOUTPS1                           00000004
TOUTPS2                           00000005
TOUTPS3                           00000006
TRISA                             00000085
TRISA0                            00000000
TRISA1                            00000001
TRISA2                            00000002
TRISA3                            00000003
TRISA4                            00000004
TRISA5                            00000005
TRISB                             00000086
TRISB0                            00000000
TRISB1                            00000001
TRISB2                            00000002
TRISB3                            00000003
TRISB4                            00000004
TRISB5                            00000005
TRISB6                            00000006
TRISB7                            00000007
TRISC                             00000087
TRISC0                            00000000
TRISC1                            00000001
TRISC2                            00000002
TRISC3                            00000003
TRISC4                            00000004
TRISC5                            00000005
TRISC6                            00000006
TRISC7                            00000007
TRISD                             00000088
TRISD0                            00000000
TRISD1                            00000001
TRISD2                            00000002
TRISD3                            00000003
TRISD4                            00000004
TRISD5                            00000005
TRISD6                            00000006
TRISD7                            00000007
TRISE                             00000089
TRISE0                            00000000
TRISE1                            00000001
TRISE2                            00000002
TRMT                              00000001
TX8_9                             00000006
TX9                               00000006
TX9D                              00000000
TXD8                              00000000
TXEN                              00000005
TXIE                              00000004
TXIF                              00000004
TXREG                             00000019
TXSTA                             00000098
UA                                00000001
W                                 00000000
gpasm-1.4.0 #1106 (Oct  6 2014) obj\Release\T   7-19-2020  20:05:24         PAGE 16


SYMBOL TABLE
  LABEL                             VALUE 

WCOL                              00000007
WR                                00000001
WREN                              00000002
WRERR                             00000003
WSAVE                             00000000
Z                                 00000002
_00111_DS_                        0000009E
_ADCON0                           00000000
_ADCON0bits                       00000000
_ADCON1                           00000000
_ADCON1bits                       00000000
_ADC_GetResult                    00000000
_ADC_Init                         00000000
_ADC_Update                       00000000
_ADRESH                           00000000
_ADRESL                           00000000
_BODEN_OFF                        00003FBF
_BODEN_ON                         00003FFF
_BOREN_OFF                        00003FBF
_BOREN_ON                         00003FFF
_CCP1CON                          00000000
_CCP1CONbits                      00000000
_CCP2CON                          00000000
_CCP2CONbits                      00000000
_CCPR1                            00000000
_CCPR1H                           00000000
_CCPR1L                           00000000
_CCPR2                            00000000
_CCPR2H                           00000000
_CCPR2L                           00000000
_CMCON                            00000000
_CMCONbits                        00000000
_CONFIG                           00002007
_CPD_OFF                          00003FFF
_CPD_ON                           00003EFF
_CP_ALL                           00001FFF
_CP_OFF                           00003FFF
_CP_ON                            00001FFF
_CVRCON                           00000000
_CVRCONbits                       00000000
_Cooler_GetState                  00000000
_Cooler_Init                      00000000
_Cooler_SetState                  00000000
_Cooler_update                    00000000
_Counters                         00000000
_DEBUG_OFF                        00003FFF
_DEBUG_ON                         000037FF
_DEVID1                           00002006
_EEADR                            00000000
_EEADRH                           00000000
_EECON1                           00000000
_EECON1bits                       00000000
_EECON2                           00000000
gpasm-1.4.0 #1106 (Oct  6 2014) obj\Release\T   7-19-2020  20:05:24         PAGE 17


SYMBOL TABLE
  LABEL                             VALUE 

_EEDATA                           00000000
_EEDATH                           00000000
_FOSC_EXTRC                       00003FFF
_FOSC_HS                          00003FFE
_FOSC_LP                          00003FFC
_FOSC_XT                          00003FFD
_FSR                              00000000
_Flags                            00000000
_GPIO_GetPortPinState             00000000
_GPIO_InitPort                    00000000
_GPIO_InitPortPin                 00000000
_GPIO_SetPortPinState             00000000
_GPIO_SetPortState                00000000
_GPIO_Update                      00000000
_HS_OSC                           00003FFE
_Heater_GetState                  00000000
_Heater_Init                      00000000
_Heater_update                    00000000
_I2C_Begin                        00000000
_I2C_End                          00000000
_I2C_Hold                         00000000
_I2C_Init                         00000000
_I2C_Read                         00000000
_I2C_Write                        00000000
_IDLOC0                           00002000
_IDLOC1                           00002001
_IDLOC2                           00002002
_IDLOC3                           00002003
_INDF                             00000000
_INTCON                           00000000
_INTCONbits                       00000000
_LED_GetState                     00000000
_LED_Init                         00000000
_LED_Update                       00000000
_LP_OSC                           00003FFC
_LVP_OFF                          00003F7F
_LVP_ON                           00003FFF
_OPTION_REG                       00000000
_OPTION_REGbits                   00000000
_PB_GetState                      00000000
_PB_Init                          00000000
_PB_Update                        00000000
_PCL                              00000000
_PCLATH                           00000000
_PCON                             00000000
_PCONbits                         00000000
_PIE1                             00000000
_PIE1bits                         00000000
_PIE2                             00000000
_PIE2bits                         00000000
_PIR1                             00000000
_PIR1bits                         00000000
_PIR2                             00000000
gpasm-1.4.0 #1106 (Oct  6 2014) obj\Release\T   7-19-2020  20:05:24         PAGE 18


SYMBOL TABLE
  LABEL                             VALUE 

_PIR2bits                         00000000
_PORTA                            00000000
_PORTAbits                        00000000
_PORTB                            00000000
_PORTBbits                        00000000
_PORTC                            00000000
_PORTCbits                        00000000
_PORTD                            00000000
_PORTDbits                        00000000
_PORTE                            00000000
_PORTEbits                        00000000
_PR2                              00000000
_PWRTE_OFF                        00003FFF
_PWRTE_ON                         00003FF7
_RCREG                            00000000
_RCSTA                            00000000
_RCSTAbits                        00000000
_RC_OSC                           00003FFF
_Readings                         00000000
_SPBRG                            00000000
_SSD_GET_Symbol                   00000000
_SSD_GET_state                    00000000
_SSD_Init                         00000000
_SSD_SET_Symbol                   00000000
_SSD_SET_state                    00000000
_SSD_update                       00000000
_SSPADD                           00000000
_SSPBUF                           00000000
_SSPCON                           00000000
_SSPCON2                          00000000
_SSPCON2bits                      00000000
_SSPCONbits                       00000000
_SSPSTAT                          00000000
_SSPSTATbits                      00000000
_STATUS                           00000000
_STATUSbits                       00000000
_SettingMode_update               00000000
_Start_conversion_Int             00000000
_T1CON                            00000000
_T1CONbits                        00000000
_T2CON                            00000000
_T2CONbits                        00000000
_TMR0                             00000000
_TMR0_Init                        00000000
_TMR0_Start                       00000000
_TMR0_Update                      00000000
_TMR1                             00000000
_TMR1H                            00000000
_TMR1L                            00000000
_TMR2                             00000000
_TRISA                            00000000
_TRISAbits                        00000000
_TRISB                            00000000
gpasm-1.4.0 #1106 (Oct  6 2014) obj\Release\T   7-19-2020  20:05:24         PAGE 19


SYMBOL TABLE
  LABEL                             VALUE 

_TRISBbits                        00000000
_TRISC                            00000000
_TRISCbits                        00000000
_TRISD                            00000000
_TRISDbits                        00000000
_TRISE                            00000000
_TRISEbits                        00000000
_TXREG                            00000000
_TXSTA                            00000000
_TXSTAbits                        00000000
_Temprature_Init                  000000AA
_Temprature_Read                  00000000
_Temprature_update                00000000
_UTIL_DelayMS                     00000000
_WDTE_OFF                         00003FFB
_WDTE_ON                          00003FFF
_WDT_OFF                          00003FFB
_WDT_ON                           00003FFF
_WRT_1FOURTH                      00003BFF
_WRT_256                          00003DFF
_WRT_HALF                         000039FF
_WRT_OFF                          00003FFF
_XT_OSC                           00003FFD
__16F877A                         00000001
__CODE_END                        00001FFF
__CODE_START                      00000000
__COMMON_RAM_END                  0000007F
__COMMON_RAM_START                00000070
__EEPROM_END                      000021FF
__EEPROM_START                    00002100
__VECTOR_INT                      00000004
__VECTOR_RESET                    00000000
___fs2ulong                       00000000
___fsdiv                          00000000
___ulong2fs                       00000000
__mullong                         00000000
_code_Temp_000D                   0000000D
_code_Temp_0036                   00000036
_code_Temp_004A                   0000004A
_code_Temp_0067                   00000067
_code_Temp_007B                   0000007B
_code_Temp_00AE                   000000AE
_e2pex_update                     00000000
_e2pext_r                         00000000
_e2pext_w                         00000000
r0x1012                           00000000
r0x1013                           00000001
r0x1014                           00000002
r0x1015                           00000003
r0x1018                           00000004

Errors   :     0
Warnings :     0 reported,     0 suppressed
gpasm-1.4.0 #1106 (Oct  6 2014) obj\Release\T   7-19-2020  20:05:24         PAGE 20




Messages :     0 reported,     0 suppressed

